{
   <insert a suppression name here>
   Memcheck:Cond
   obj:/usr/lib64/libz.so.1.2.3
}
{
   <insert a suppression name here>
   Memcheck:Cond
   obj:/usr/lib64/libz.so.1.2.3
}
{
   <insert a suppression name here>
   Memcheck:Cond
   obj:/usr/lib64/libz.so.1.2.3
}
{
   <insert a suppression name here>
   Memcheck:Cond
   obj:/usr/lib64/libz.so.1.2.3
}
{
   <insert a suppression name here>
   Memcheck:Cond
   obj:/usr/lib64/libz.so.1.2.3
}
{
   <insert a suppression name here>
   Memcheck:Cond
   obj:/usr/lib64/libz.so.1.2.3
}
{
   <insert a suppression name here>
   Memcheck:Cond
   obj:/usr/lib64/libz.so.1.2.3
}
{
   <insert a suppression name here>
   Memcheck:Cond
   obj:/usr/lib64/libz.so.1.2.3
}
{
   <insert a suppression name here>
   Memcheck:Cond
   fun:_ZN5TMath3MaxEdd
   fun:_ZN5genie16BLI2DNonUnifGrid8AddPointEddd
   fun:_ZN5genie16BLI2DNonUnifGridC1EiiPdS1_S1_
   fun:_ZN5genie14INukeHadroData17LoadCrossSectionsEv
   fun:_ZN5genie14INukeHadroDataC1Ev
   fun:_ZN5genie14INukeHadroData8InstanceEv
   fun:_ZN5genie11HAIntranuke10LoadConfigEv
   fun:_ZN5genie9Intranuke9ConfigureESs
   fun:_ZNK5genie10AlgFactory20InstantiateAlgorithmESsSs
   fun:_ZN5genie10AlgFactory12GetAlgorithmESsSs
   fun:_ZNK5genie9Algorithm6SubAlgERKSs
   fun:_ZN5genie17HadronTransporter10LoadConfigEv
   fun:_ZN5genie17HadronTransporter9ConfigureESs
   fun:_ZNK5genie10AlgFactory20InstantiateAlgorithmESsSs
   fun:_ZN5genie10AlgFactory12GetAlgorithmESsSs
   fun:_ZNK5genie9Algorithm6SubAlgERKSs
   fun:_ZN5genie14EventGenerator10LoadConfigEv
   fun:_ZN5genie14EventGenerator9ConfigureESs
   fun:_ZNK5genie10AlgFactory20InstantiateAlgorithmESsSs
   fun:_ZN5genie10AlgFactory12GetAlgorithmESsSs
   fun:_ZNK5genie9Algorithm6SubAlgERKSs
   fun:_ZN5genie27EventGeneratorListAssembler13LoadGeneratorEi
   fun:_ZN5genie27EventGeneratorListAssembler21AssembleGeneratorListEv
   fun:_ZN5genie10GEVGDriver18BuildGeneratorListEv
}
{
   <insert a suppression name here>
   Memcheck:Cond
   fun:_ZN5TMath3MaxEdd
   fun:_ZN5genie16BLI2DNonUnifGrid8AddPointEddd
   fun:_ZN5genie16BLI2DNonUnifGridC1EiiPdS1_S1_
   fun:_ZN5genie14INukeHadroData17LoadCrossSectionsEv
   fun:_ZN5genie14INukeHadroDataC1Ev
   fun:_ZN5genie14INukeHadroData8InstanceEv
   fun:_ZN5genie11HAIntranuke10LoadConfigEv
   fun:_ZN5genie9Intranuke9ConfigureESs
   fun:_ZNK5genie10AlgFactory20InstantiateAlgorithmESsSs
   fun:_ZN5genie10AlgFactory12GetAlgorithmESsSs
   fun:_ZNK5genie9Algorithm6SubAlgERKSs
   fun:_ZN5genie17HadronTransporter10LoadConfigEv
   fun:_ZN5genie17HadronTransporter9ConfigureESs
   fun:_ZNK5genie10AlgFactory20InstantiateAlgorithmESsSs
   fun:_ZN5genie10AlgFactory12GetAlgorithmESsSs
   fun:_ZNK5genie9Algorithm6SubAlgERKSs
   fun:_ZN5genie14EventGenerator10LoadConfigEv
   fun:_ZN5genie14EventGenerator9ConfigureESs
   fun:_ZNK5genie10AlgFactory20InstantiateAlgorithmESsSs
   fun:_ZN5genie10AlgFactory12GetAlgorithmESsSs
   fun:_ZNK5genie9Algorithm6SubAlgERKSs
   fun:_ZN5genie27EventGeneratorListAssembler13LoadGeneratorEi
   fun:_ZN5genie27EventGeneratorListAssembler21AssembleGeneratorListEv
   fun:_ZN5genie10GEVGDriver18BuildGeneratorListEv
}
{
   <insert a suppression name here>
   Memcheck:Cond
   fun:_ZN5TMath3MaxEdd
   fun:_ZN5genie16BLI2DNonUnifGrid8AddPointEddd
   fun:_ZN5genie16BLI2DNonUnifGridC1EiiPdS1_S1_
   fun:_ZN5genie14INukeHadroData17LoadCrossSectionsEv
   fun:_ZN5genie14INukeHadroDataC1Ev
   fun:_ZN5genie14INukeHadroData8InstanceEv
   fun:_ZN5genie11HAIntranuke10LoadConfigEv
   fun:_ZN5genie9Intranuke9ConfigureESs
   fun:_ZNK5genie10AlgFactory20InstantiateAlgorithmESsSs
   fun:_ZN5genie10AlgFactory12GetAlgorithmESsSs
   fun:_ZNK5genie9Algorithm6SubAlgERKSs
   fun:_ZN5genie17HadronTransporter10LoadConfigEv
   fun:_ZN5genie17HadronTransporter9ConfigureESs
   fun:_ZNK5genie10AlgFactory20InstantiateAlgorithmESsSs
   fun:_ZN5genie10AlgFactory12GetAlgorithmESsSs
   fun:_ZNK5genie9Algorithm6SubAlgERKSs
   fun:_ZN5genie14EventGenerator10LoadConfigEv
   fun:_ZN5genie14EventGenerator9ConfigureESs
   fun:_ZNK5genie10AlgFactory20InstantiateAlgorithmESsSs
   fun:_ZN5genie10AlgFactory12GetAlgorithmESsSs
   fun:_ZNK5genie9Algorithm6SubAlgERKSs
   fun:_ZN5genie27EventGeneratorListAssembler13LoadGeneratorEi
   fun:_ZN5genie27EventGeneratorListAssembler21AssembleGeneratorListEv
   fun:_ZN5genie10GEVGDriver18BuildGeneratorListEv
}
{
   <insert a suppression name here>
   Memcheck:Cond
   fun:_ZN5TMath3MaxEdd
   fun:_ZN5genie16BLI2DNonUnifGrid8AddPointEddd
   fun:_ZN5genie16BLI2DNonUnifGridC1EiiPdS1_S1_
   fun:_ZN5genie14INukeHadroData17LoadCrossSectionsEv
   fun:_ZN5genie14INukeHadroDataC1Ev
   fun:_ZN5genie14INukeHadroData8InstanceEv
   fun:_ZN5genie11HAIntranuke10LoadConfigEv
   fun:_ZN5genie9Intranuke9ConfigureESs
   fun:_ZNK5genie10AlgFactory20InstantiateAlgorithmESsSs
   fun:_ZN5genie10AlgFactory12GetAlgorithmESsSs
   fun:_ZNK5genie9Algorithm6SubAlgERKSs
   fun:_ZN5genie17HadronTransporter10LoadConfigEv
   fun:_ZN5genie17HadronTransporter9ConfigureESs
   fun:_ZNK5genie10AlgFactory20InstantiateAlgorithmESsSs
   fun:_ZN5genie10AlgFactory12GetAlgorithmESsSs
   fun:_ZNK5genie9Algorithm6SubAlgERKSs
   fun:_ZN5genie14EventGenerator10LoadConfigEv
   fun:_ZN5genie14EventGenerator9ConfigureESs
   fun:_ZNK5genie10AlgFactory20InstantiateAlgorithmESsSs
   fun:_ZN5genie10AlgFactory12GetAlgorithmESsSs
   fun:_ZNK5genie9Algorithm6SubAlgERKSs
   fun:_ZN5genie27EventGeneratorListAssembler13LoadGeneratorEi
   fun:_ZN5genie27EventGeneratorListAssembler21AssembleGeneratorListEv
   fun:_ZN5genie10GEVGDriver18BuildGeneratorListEv
}
{
   <insert a suppression name here>
   Memcheck:Cond
   obj:/usr/lib64/libz.so.1.2.3
}
{
   <insert a suppression name here>
   Memcheck:Cond
   obj:/usr/lib64/libz.so.1.2.3
}
{
   <insert a suppression name here>
   Memcheck:Cond
   obj:/usr/lib64/libz.so.1.2.3
}
{
   <insert a suppression name here>
   Memcheck:Leak
   fun:_vgrZU_libstdcZpZpZa__Znam
   fun:_ZN5TBitsC1Ej
   fun:_ZN5genie6RunOpt4InitEv
   fun:_ZN5genie6RunOptC1Ev
   fun:_ZN5genie6RunOpt8InstanceEv
   fun:_Z18GetCommandLineArgsiPPc
   fun:main
}
{
   <insert a suppression name here>
   Memcheck:Leak
   fun:_vgrZU_libstdcZpZpZa__Znwm
   fun:_ZN4ROOT25GenerateInitInstanceLocalEPK18TProcessEventTimer
   fun:_Z41__static_initialization_and_destruction_0ii
   obj:/minerva/app/users/perdue/GENIE/support/root/lib/libCore.so
   obj:/minerva/app/users/perdue/GENIE/support/root/lib/libCore.so
   obj:*
   obj:*
   obj:*
   obj:*
   obj:*
   obj:*
   fun:_vgrZU_libstdcZpZpZa__Znwm
   fun:_ZNSs4_Rep9_S_createEmmRKSaIcE
   fun:_ZNSs4_Rep8_M_cloneERKSaIcEm
   fun:_ZNSs7reserveEm
   fun:_ZN10TClassEdit9CleanTypeEPKciPS1_
   fun:_ZN10TClassEdit8GetSplitEPKcRSt6vectorISsSaISsEERiNS_8EModTypeE
   fun:_ZN10TClassEdit10TSplitTypeC1EPKcNS_8EModTypeE
   fun:_ZN11TClassTable3AddEPKcsRKSt9type_infoPFvvEi
   fun:_ZNK4ROOT20TDefaultInitBehavior8RegisterEPKcsRKSt9type_infoPFvvEi
   fun:_ZN4ROOT17TGenericClassInfoC1EPKciS2_iRKSt9type_infoPKNS_13TInitBehaviorEPFvvEP16TVirtualIsAProxyii
   fun:_ZN4ROOT25GenerateInitInstanceLocalEPK18TProcessEventTimer
   fun:_Z41__static_initialization_and_destruction_0ii
   obj:/minerva/app/users/perdue/GENIE/support/root/lib/libCore.so
}
{
   <insert a suppression name here>
   Memcheck:Leak
   fun:_vgrZU_libstdcZpZpZa__Znwm
   fun:_ZN4ROOT25GenerateInitInstanceLocalEPK20TStdExceptionHandler
   fun:_Z41__static_initialization_and_destruction_0ii
   obj:/minerva/app/users/perdue/GENIE/support/root/lib/libCore.so
   obj:/minerva/app/users/perdue/GENIE/support/root/lib/libCore.so
   obj:*
   obj:*
   obj:*
   obj:*
   obj:*
   obj:*
   fun:_vgrZU_libstdcZpZpZa__Znwm
   fun:_ZNSs4_Rep9_S_createEmmRKSaIcE
   fun:_ZNSs4_Rep8_M_cloneERKSaIcEm
   fun:_ZNSs7reserveEm
   fun:_ZN10TClassEdit9CleanTypeEPKciPS1_
   fun:_ZN10TClassEdit8GetSplitEPKcRSt6vectorISsSaISsEERiNS_8EModTypeE
   fun:_ZN10TClassEdit10TSplitTypeC1EPKcNS_8EModTypeE
   fun:_ZN11TClassTable3AddEPKcsRKSt9type_infoPFvvEi
   fun:_ZNK4ROOT20TDefaultInitBehavior8RegisterEPKcsRKSt9type_infoPFvvEi
   fun:_ZN4ROOT17TGenericClassInfoC1EPKciS2_iRKSt9type_infoPKNS_13TInitBehaviorEPFvvEP16TVirtualIsAProxyii
   fun:_ZN4ROOT25GenerateInitInstanceLocalEPK20TStdExceptionHandler
   fun:_Z41__static_initialization_and_destruction_0ii
   obj:/minerva/app/users/perdue/GENIE/support/root/lib/libCore.so
}
{
   <insert a suppression name here>
   Memcheck:Leak
   fun:_vgrZU_libstdcZpZpZa__Znwm
   fun:_ZN4ROOT25GenerateInitInstanceLocalEPK14TSysEvtHandler
   fun:_Z41__static_initialization_and_destruction_0ii
   obj:/minerva/app/users/perdue/GENIE/support/root/lib/libCore.so
   obj:/minerva/app/users/perdue/GENIE/support/root/lib/libCore.so
   obj:*
   obj:*
   obj:*
   obj:*
   obj:*
   obj:*
   fun:_vgrZU_libstdcZpZpZa__Znwm
   fun:_ZNSs4_Rep9_S_createEmmRKSaIcE
   fun:_ZNSs4_Rep8_M_cloneERKSaIcEm
   fun:_ZNSs7reserveEm
   fun:_ZN10TClassEdit9CleanTypeEPKciPS1_
   fun:_ZN10TClassEdit8GetSplitEPKcRSt6vectorISsSaISsEERiNS_8EModTypeE
   fun:_ZN10TClassEdit10TSplitTypeC1EPKcNS_8EModTypeE
   fun:_ZN11TClassTable3AddEPKcsRKSt9type_infoPFvvEi
   fun:_ZNK4ROOT20TDefaultInitBehavior8RegisterEPKcsRKSt9type_infoPFvvEi
   fun:_ZN4ROOT17TGenericClassInfoC1EPKciS2_iRKSt9type_infoPKNS_13TInitBehaviorEPFvvEP16TVirtualIsAProxyii
   fun:_ZN4ROOT25GenerateInitInstanceLocalEPK14TSysEvtHandler
   fun:_Z41__static_initialization_and_destruction_0ii
   obj:/minerva/app/users/perdue/GENIE/support/root/lib/libCore.so
}
{
   <insert a suppression name here>
   Memcheck:Leak
   fun:_vgrZU_libstdcZpZpZa__Znwm
   fun:_ZN4ROOT25GenerateInitInstanceLocalEPK13TQUndoManager
   fun:_Z41__static_initialization_and_destruction_0ii
   obj:/minerva/app/users/perdue/GENIE/support/root/lib/libCore.so
   obj:/minerva/app/users/perdue/GENIE/support/root/lib/libCore.so
   obj:*
   obj:*
   obj:*
   obj:*
}
{
   <insert a suppression name here>
   Memcheck:Leak
   fun:_vgrZU_libstdcZpZpZa__Znwm
   fun:_ZN4ROOT25GenerateInitInstanceLocalEPK9TQCommand
   fun:_Z41__static_initialization_and_destruction_0ii
   obj:/minerva/app/users/perdue/GENIE/support/root/lib/libCore.so
   obj:/minerva/app/users/perdue/GENIE/support/root/lib/libCore.so
   obj:*
   obj:*
   obj:*
   obj:*
   obj:*
   obj:*
   fun:_vgrZU_libstdcZpZpZa__Znwm
   fun:_ZNSs4_Rep9_S_createEmmRKSaIcE
   fun:_ZNSs4_Rep8_M_cloneERKSaIcEm
   fun:_ZNSs7reserveEm
   fun:_ZN10TClassEdit9CleanTypeEPKciPS1_
   fun:_ZN10TClassEdit8GetSplitEPKcRSt6vectorISsSaISsEERiNS_8EModTypeE
   fun:_ZN10TClassEdit10TSplitTypeC1EPKcNS_8EModTypeE
   fun:_ZN11TClassTable3AddEPKcsRKSt9type_infoPFvvEi
   fun:_ZNK4ROOT20TDefaultInitBehavior8RegisterEPKcsRKSt9type_infoPFvvEi
   fun:_ZN4ROOT17TGenericClassInfoC1EPKciS2_iRKSt9type_infoPKNS_13TInitBehaviorEPFvvEP16TVirtualIsAProxyii
   fun:_ZN4ROOT25GenerateInitInstanceLocalEPK9TQCommand
   fun:_Z41__static_initialization_and_destruction_0ii
   obj:/minerva/app/users/perdue/GENIE/support/root/lib/libCore.so
}
{
   <insert a suppression name here>
   Memcheck:Leak
   fun:_vgrZU_libstdcZpZpZa__Znwm
   fun:_ZN4ROOT25GenerateInitInstanceLocalEPK7TQClass
   fun:_Z41__static_initialization_and_destruction_0ii
   obj:/minerva/app/users/perdue/GENIE/support/root/lib/libCore.so
   obj:/minerva/app/users/perdue/GENIE/support/root/lib/libCore.so
   obj:*
   obj:*
   obj:*
   obj:*
   obj:*
   obj:*
   fun:_vgrZU_libstdcZpZpZa__Znwm
   fun:_ZNSs4_Rep9_S_createEmmRKSaIcE
   fun:_ZNSs4_Rep8_M_cloneERKSaIcEm
   fun:_ZNSs7reserveEm
   fun:_ZN10TClassEdit9CleanTypeEPKciPS1_
   fun:_ZN10TClassEdit8GetSplitEPKcRSt6vectorISsSaISsEERiNS_8EModTypeE
   fun:_ZN10TClassEdit10TSplitTypeC1EPKcNS_8EModTypeE
   fun:_ZN11TClassTable3AddEPKcsRKSt9type_infoPFvvEi
   fun:_ZNK4ROOT20TDefaultInitBehavior8RegisterEPKcsRKSt9type_infoPFvvEi
   fun:_ZN4ROOT17TGenericClassInfoC1EPKciS2_iRKSt9type_infoPKNS_13TInitBehaviorEPFvvEP16TVirtualIsAProxyii
   fun:_ZN4ROOT25GenerateInitInstanceLocalEPK7TQClass
   fun:_Z41__static_initialization_and_destruction_0ii
   obj:/minerva/app/users/perdue/GENIE/support/root/lib/libCore.so
}
{
   <insert a suppression name here>
   Memcheck:Leak
   fun:_vgrZU_libstdcZpZpZa__Znwm
   fun:_ZN4ROOT25GenerateInitInstanceLocalEPK15TMessageHandler
   fun:_Z41__static_initialization_and_destruction_0ii
   obj:/minerva/app/users/perdue/GENIE/support/root/lib/libCore.so
   obj:/minerva/app/users/perdue/GENIE/support/root/lib/libCore.so
   obj:*
   obj:*
   obj:*
   obj:*
}
{
   <insert a suppression name here>
   Memcheck:Leak
   fun:_vgrZU_libstdcZpZpZa__Znwm
   fun:_ZN4ROOT25GenerateInitInstanceLocalEPK14TSignalHandler
   fun:_Z41__static_initialization_and_destruction_0ii
   obj:/minerva/app/users/perdue/GENIE/support/root/lib/libCore.so
   obj:/minerva/app/users/perdue/GENIE/support/root/lib/libCore.so
   obj:*
   obj:*
   obj:*
   obj:*
   obj:*
   obj:*
   fun:_vgrZU_libstdcZpZpZa__Znwm
   fun:_ZNSs4_Rep9_S_createEmmRKSaIcE
   fun:_ZNSs4_Rep8_M_cloneERKSaIcEm
   fun:_ZNSs7reserveEm
   fun:_ZN10TClassEdit9CleanTypeEPKciPS1_
   fun:_ZN10TClassEdit8GetSplitEPKcRSt6vectorISsSaISsEERiNS_8EModTypeE
   fun:_ZN10TClassEdit10TSplitTypeC1EPKcNS_8EModTypeE
   fun:_ZN11TClassTable3AddEPKcsRKSt9type_infoPFvvEi
   fun:_ZNK4ROOT20TDefaultInitBehavior8RegisterEPKcsRKSt9type_infoPFvvEi
   fun:_ZN4ROOT17TGenericClassInfoC1EPKciS2_iRKSt9type_infoPKNS_13TInitBehaviorEPFvvEP16TVirtualIsAProxyii
   fun:_ZN4ROOT25GenerateInitInstanceLocalEPK14TSignalHandler
   fun:_Z41__static_initialization_and_destruction_0ii
   obj:/minerva/app/users/perdue/GENIE/support/root/lib/libCore.so
}
{
   <insert a suppression name here>
   Memcheck:Leak
   fun:_vgrZU_libstdcZpZpZa__Znwm
   fun:_ZN4ROOT25GenerateInitInstanceLocalEPK11TQObjSender
   fun:_Z41__static_initialization_and_destruction_0ii
   obj:/minerva/app/users/perdue/GENIE/support/root/lib/libCore.so
   obj:/minerva/app/users/perdue/GENIE/support/root/lib/libCore.so
   obj:*
   obj:*
   obj:*
   obj:*
   obj:*
   obj:*
   fun:_vgrZU_libstdcZpZpZa__Znwm
   fun:_ZNSs4_Rep9_S_createEmmRKSaIcE
   fun:_ZNSs4_Rep8_M_cloneERKSaIcEm
   fun:_ZNSs7reserveEm
   fun:_ZN10TClassEdit9CleanTypeEPKciPS1_
   fun:_ZN10TClassEdit8GetSplitEPKcRSt6vectorISsSaISsEERiNS_8EModTypeE
   fun:_ZN10TClassEdit10TSplitTypeC1EPKcNS_8EModTypeE
   fun:_ZN11TClassTable3AddEPKcsRKSt9type_infoPFvvEi
   fun:_ZNK4ROOT20TDefaultInitBehavior8RegisterEPKcsRKSt9type_infoPFvvEi
   fun:_ZN4ROOT17TGenericClassInfoC1EPKciS2_iRKSt9type_infoPKNS_13TInitBehaviorEPFvvEP16TVirtualIsAProxyii
   fun:_ZN4ROOT25GenerateInitInstanceLocalEPK11TQObjSender
   fun:_Z41__static_initialization_and_destruction_0ii
   obj:/minerva/app/users/perdue/GENIE/support/root/lib/libCore.so
}
{
   <insert a suppression name here>
   Memcheck:Leak
   fun:_vgrZU_libstdcZpZpZa__Znwm
   fun:_ZN4ROOT25GenerateInitInstanceLocalEPK8TQObject
   fun:_Z41__static_initialization_and_destruction_0ii
   obj:/minerva/app/users/perdue/GENIE/support/root/lib/libCore.so
   obj:/minerva/app/users/perdue/GENIE/support/root/lib/libCore.so
   obj:*
   obj:*
   obj:*
   obj:*
}
{
   <insert a suppression name here>
   Memcheck:Leak
   fun:_vgrZU_libstdcZpZpZa__Znwm
   fun:_ZN4ROOT25GenerateInitInstanceLocalEPK12TQConnection
   fun:_Z41__static_initialization_and_destruction_0ii
   obj:/minerva/app/users/perdue/GENIE/support/root/lib/libCore.so
   obj:/minerva/app/users/perdue/GENIE/support/root/lib/libCore.so
   obj:*
   obj:*
   obj:*
   obj:*
   obj:*
   obj:*
   fun:_vgrZU_libstdcZpZpZa__Znwm
   fun:_ZNSs4_Rep9_S_createEmmRKSaIcE
   fun:_ZNSs4_Rep8_M_cloneERKSaIcEm
   fun:_ZNSs7reserveEm
   fun:_ZN10TClassEdit9CleanTypeEPKciPS1_
   fun:_ZN10TClassEdit8GetSplitEPKcRSt6vectorISsSaISsEERiNS_8EModTypeE
   fun:_ZN10TClassEdit10TSplitTypeC1EPKcNS_8EModTypeE
   fun:_ZN11TClassTable3AddEPKcsRKSt9type_infoPFvvEi
   fun:_ZNK4ROOT20TDefaultInitBehavior8RegisterEPKcsRKSt9type_infoPFvvEi
   fun:_ZN4ROOT17TGenericClassInfoC1EPKciS2_iRKSt9type_infoPKNS_13TInitBehaviorEPFvvEP16TVirtualIsAProxyii
   fun:_ZN4ROOT25GenerateInitInstanceLocalEPK12TQConnection
   fun:_Z41__static_initialization_and_destruction_0ii
   obj:/minerva/app/users/perdue/GENIE/support/root/lib/libCore.so
}
{
   <insert a suppression name here>
   Memcheck:Leak
   fun:_vgrZU_libstdcZpZpZa__Znwm
   fun:_ZN4ROOT25GenerateInitInstanceLocalEPK6TTimer
   fun:_Z41__static_initialization_and_destruction_0ii
   obj:/minerva/app/users/perdue/GENIE/support/root/lib/libCore.so
   obj:/minerva/app/users/perdue/GENIE/support/root/lib/libCore.so
   obj:*
   obj:*
   obj:*
   obj:*
}
{
   <insert a suppression name here>
   Memcheck:Leak
   fun:_vgrZU_libstdcZpZpZa__Znwm
   fun:_ZNSt6vectorIPN4ROOT20TCollectionProxyInfo11EnvironBaseESaIS3_EE13_M_insert_auxEN9__gnu_cxx17__normal_iteratorIPS3_S5_EERKS3_
   fun:_ZN19TGenCollectionProxy9PushProxyEPv
   fun:_ZN19TCollectionStreamer8StreamerER7TBufferPviP6TClass
   fun:_ZN11TBufferFile14WriteFastArrayEPvPK6TClassiP15TMemberStreamer
   fun:_ZN13TStreamerInfo14WriteBufferAuxIPPcEEiR7TBufferRKT_iiii
   fun:_ZN20TStreamerInfoActions18GenericWriteActionER7TBufferPvPKNS_14TConfigurationE
   fun:_ZN11TBufferFile13ApplySequenceERKN20TStreamerInfoActions15TActionSequenceEPv
   fun:_ZN11TBufferFile16WriteClassBufferEPK6TClassPv
   fun:_ZN5genie10Kinematics8StreamerER7TBuffer
   fun:_ZN11TBufferFile16WriteObjectClassEPKvPK6TClass
   fun:_ZN11TBufferFile14WriteObjectAnyEPKvPK6TClass
   fun:_ZlsIN5genie10KinematicsEER7TBufferS3_PKT_
   fun:_ZN5genie11Interaction8StreamerER7TBuffer
   fun:_ZN11TBufferFile16WriteObjectClassEPKvPK6TClass
   fun:_ZN11TBufferFile14WriteObjectAnyEPKvPK6TClass
   fun:_ZN11TBufferFile14WriteFastArrayEPPvPK6TClassibP15TMemberStreamer
   fun:_ZN13TStreamerInfo14WriteBufferAuxIPPcEEiR7TBufferRKT_iiii
   fun:_ZN20TStreamerInfoActions18GenericWriteActionER7TBufferPvPKNS_14TConfigurationE
   fun:_ZN11TBufferFile13ApplySequenceERKN20TStreamerInfoActions15TActionSequenceEPv
   fun:_ZN11TBufferFile16WriteClassBufferEPK6TClassPv
   fun:_ZN5genie10GHepRecord8StreamerER7TBuffer
   fun:_ZN5genie11EventRecord8StreamerER7TBuffer
   fun:_ZN11TBufferFile16WriteObjectClassEPKvPK6TClass
}
{
   <insert a suppression name here>
   Memcheck:Leak
   fun:_vgrZU_libstdcZpZpZa__Znwm
   fun:G__map_cpp_name
   fun:_ZN9TFunctionC2EPv
   fun:_ZN7TMethodC1EPvP6TClass
   fun:_ZN5TCint19CreateListOfMethodsEP6TClass
   fun:_ZN6TClass16GetListOfMethodsEv
   fun:_ZN6TClass12GetMethodAnyEPKc
   fun:_ZN13TStreamerBase4InitEP7TObject
   fun:_ZN13TStreamerBaseC1EPKcS1_i
   fun:_ZN13TStreamerInfo5BuildEv
   fun:_ZN11TBufferFile16WriteClassBufferEPK6TClassPv
   fun:_ZN4TKeyC1EPK7TObjectPKciP10TDirectory
   fun:_ZN5TFile9CreateKeyEP10TDirectoryPK7TObjectPKci
   fun:_ZN14TDirectoryFile12WriteTObjectEPK7TObjectPKcS4_i
   fun:_ZNK7TObject5WriteEPKcii
   fun:_Z13TH1FluxDriverv
   fun:_Z10FluxDriverv
   fun:_Z31GenerateEventsUsingFluxOrTgtMixv
   fun:main
}
{
   <insert a suppression name here>
   Memcheck:Leak
   fun:_vgrZU_libstdcZpZpZa__Znwm
   fun:G__loadfile
   fun:G__loadsystemfile
   fun:_ZN5TCint4LoadEPKcb
   fun:_ZN7TSystem4LoadEPKcS1_b
   fun:_ZN5TROOT9LoadClassEPKcS1_b
   fun:_ZN18TVirtualTreePlayer10TreePlayerEP5TTree
   fun:_ZN5TTree9GetPlayerEv
   fun:_ZN5TTree4DrawEPKcS1_S1_xx
   fun:_ZN5genie6Spline12LoadFromTreeEP5TTreeSsSs
   fun:_ZN5genie6SplineC1EP5TTreeSsSs
   fun:_ZN5genie14INukeHadroData17LoadCrossSectionsEv
   fun:_ZN5genie14INukeHadroDataC1Ev
   fun:_ZN5genie14INukeHadroData8InstanceEv
   fun:_ZN5genie11HAIntranuke10LoadConfigEv
   fun:_ZN5genie9Intranuke9ConfigureESs
   fun:_ZNK5genie10AlgFactory20InstantiateAlgorithmESsSs
   fun:_ZN5genie10AlgFactory12GetAlgorithmESsSs
   fun:_ZNK5genie9Algorithm6SubAlgERKSs
   fun:_ZN5genie17HadronTransporter10LoadConfigEv
   fun:_ZN5genie17HadronTransporter9ConfigureESs
   fun:_ZNK5genie10AlgFactory20InstantiateAlgorithmESsSs
   fun:_ZN5genie10AlgFactory12GetAlgorithmESsSs
   fun:_ZNK5genie9Algorithm6SubAlgERKSs
}
{
   <insert a suppression name here>
   Memcheck:Leak
   fun:_vgrZU_libstdcZpZpZa__Znwm
   fun:_ZN4Cint13G__MethodInfo12GetPrototypeEv
   fun:_ZN4Cint13G__MethodInfo14GetMangledNameEv
   fun:_ZN9TFunctionC2EPv
   fun:_ZN7TMethodC1EPvP6TClass
   fun:_ZN5TCint19CreateListOfMethodsEP6TClass
   fun:_ZN6TClass16GetListOfMethodsEv
   fun:_ZN6TClass12GetMethodAnyEPKc
   fun:_ZN13TStreamerBase4InitEP7TObject
   fun:_ZN13TStreamerBaseC1EPKcS1_i
   fun:_ZN13TStreamerInfo5BuildEv
   fun:_ZN11TBufferFile16WriteClassBufferEPK6TClassPv
   fun:_ZN4TKeyC1EPK7TObjectPKciP10TDirectory
   fun:_ZN5TFile9CreateKeyEP10TDirectoryPK7TObjectPKci
   fun:_ZN14TDirectoryFile12WriteTObjectEPK7TObjectPKcS4_i
   fun:_ZNK7TObject5WriteEPKcii
   fun:_Z13TH1FluxDriverv
   fun:_Z10FluxDriverv
   fun:_Z31GenerateEventsUsingFluxOrTgtMixv
   fun:main
}
{
   <insert a suppression name here>
   Memcheck:Leak
   fun:_vgrZU_libstdcZpZpZa__Znwm
   fun:_ZN4Cint11G__TypeInfo8TrueNameEv
   fun:_ZN9TDataTypeC1EPv
   fun:_ZN5TCint17UpdateListOfTypesEv
   fun:_ZN5TROOT14GetListOfTypesEb
   fun:_ZNK5TROOT7GetTypeEPKcb
   fun:_ZN6TClass8GetClassEPKcbb
   fun:_ZN6TClass7AddRuleEPKc
   fun:_ZN21_GLOBAL__N_gCINTMutex16ReadRulesContentEP8_IO_FILE
   fun:_ZN6TClass9ReadRulesEv
   fun:_ZN5TROOTC1EPKcS1_PPFvvE
   fun:_ZN4ROOT7GetROOTEv
   fun:_Z41__static_initialization_and_destruction_0ii
   obj:/minerva/app/users/perdue/GENIE/support/root/lib/libCore.so
   obj:/minerva/app/users/perdue/GENIE/support/root/lib/libCore.so
   obj:*
   obj:*
   obj:*
   obj:*
   obj:*
   obj:*
   fun:_vgrZU_libstdcZpZpZa__Znwm
   fun:_ZN8TStorage11ObjectAllocEm
   fun:_ZN10THashTable3AddEP7TObject
}
{
   <insert a suppression name here>
   Memcheck:Leak
   fun:_vgrZU_libstdcZpZpZa__Znwm
   fun:G__type2string
   fun:_ZN4Cint11G__TypeInfo4NameEv
   fun:_ZN5TCint17UpdateListOfTypesEv
   fun:_ZN5TROOT14GetListOfTypesEb
   fun:_ZNK5TROOT7GetTypeEPKcb
   fun:_ZN6TClass8GetClassEPKcbb
   fun:_ZN6TClass7AddRuleEPKc
   fun:_ZN21_GLOBAL__N_gCINTMutex16ReadRulesContentEP8_IO_FILE
   fun:_ZN6TClass9ReadRulesEv
   fun:_ZN5TROOTC1EPKcS1_PPFvvE
   fun:_ZN4ROOT7GetROOTEv
   fun:_Z41__static_initialization_and_destruction_0ii
   obj:/minerva/app/users/perdue/GENIE/support/root/lib/libCore.so
   obj:/minerva/app/users/perdue/GENIE/support/root/lib/libCore.so
   obj:*
   obj:*
   obj:*
   obj:*
   obj:*
   obj:*
   fun:_vgrZU_libstdcZpZpZa__Znwm
   fun:_ZN5TCint17UpdateListOfTypesEv
   fun:_ZN5TROOT14GetListOfTypesEb
}
{
   <insert a suppression name here>
   Memcheck:Leak
   fun:_vgrZU_libstdcZpZpZa__Znwm
   fun:_ZN4Cint11G__TypeInfo4NameEv
   fun:_ZN5TCint17UpdateListOfTypesEv
   fun:_ZN5TROOT14GetListOfTypesEb
   fun:_ZNK5TROOT7GetTypeEPKcb
   fun:_ZN6TClass8GetClassEPKcbb
   fun:_ZN6TClass7AddRuleEPKc
   fun:_ZN21_GLOBAL__N_gCINTMutex16ReadRulesContentEP8_IO_FILE
   fun:_ZN6TClass9ReadRulesEv
   fun:_ZN5TROOTC1EPKcS1_PPFvvE
   fun:_ZN4ROOT7GetROOTEv
   fun:_Z41__static_initialization_and_destruction_0ii
   obj:/minerva/app/users/perdue/GENIE/support/root/lib/libCore.so
   obj:/minerva/app/users/perdue/GENIE/support/root/lib/libCore.so
   obj:*
   obj:*
   obj:*
   obj:*
   obj:*
   obj:*
   fun:_vgrZU_libstdcZpZpZa__Znwm
   fun:G__type2string
   fun:_ZN4Cint11G__TypeInfo4NameEv
   fun:_ZN5TCint17UpdateListOfTypesEv
}
{
   <insert a suppression name here>
   Memcheck:Leak
   fun:_vgrZU_libcZdsoZa_malloc
   fun:G__add_ipath
   fun:_ZN5TCint14AddIncludePathEPKc
   fun:_ZN5TCintC1EPKcS1_
   fun:_ZN5TROOTC1EPKcS1_PPFvvE
   fun:_ZN4ROOT7GetROOTEv
   fun:_Z41__static_initialization_and_destruction_0ii
   obj:/minerva/app/users/perdue/GENIE/support/root/lib/libCore.so
   obj:/minerva/app/users/perdue/GENIE/support/root/lib/libCore.so
   obj:*
   obj:*
   obj:*
   obj:*
}
{
   <insert a suppression name here>
   Memcheck:Leak
   fun:_vgrZU_libstdcZpZpZa__Znwm
   fun:G__fulltagname
   fun:G__search_tagname
   fun:G__get_linked_tagnum
   fun:G__get_linked_tagnum_fwd
   fun:G__cpp_setup_tagtableG__TextInput
   fun:G__cpp_setupG__TextInput
   fun:G__call_setup_funcs
   fun:G__main
   fun:G__init_cint
   fun:_ZN5TCint8ResetAllEv
   fun:_ZN5TCintC1EPKcS1_
   fun:_ZN5TROOTC1EPKcS1_PPFvvE
   fun:_ZN4ROOT7GetROOTEv
   fun:_Z41__static_initialization_and_destruction_0ii
   obj:/minerva/app/users/perdue/GENIE/support/root/lib/libCore.so
   obj:/minerva/app/users/perdue/GENIE/support/root/lib/libCore.so
   obj:*
   obj:*
   obj:*
   obj:*
   obj:*
   obj:*
   fun:_vgrZU_libcZdsoZa_malloc
}
{
   <insert a suppression name here>
   Memcheck:Leak
   fun:_vgrZU_libstdcZpZpZa__Znwm
   fun:G__call_setup_funcs
   fun:G__main
   fun:G__init_cint
   fun:_ZN5TCint8ResetAllEv
   fun:_ZN5TCintC1EPKcS1_
   fun:_ZN5TROOTC1EPKcS1_PPFvvE
   fun:_ZN4ROOT7GetROOTEv
   fun:_Z41__static_initialization_and_destruction_0ii
   obj:/minerva/app/users/perdue/GENIE/support/root/lib/libCore.so
   obj:/minerva/app/users/perdue/GENIE/support/root/lib/libCore.so
   obj:*
   obj:*
   obj:*
   obj:*
   obj:*
   obj:*
   fun:_vgrZU_libcZdsoZa_malloc
   fun:G__register_sharedlib
   fun:G__RegisterLibrary
   fun:G__call_setup_funcs
   fun:G__main
   fun:G__init_cint
   fun:_ZN5TCint8ResetAllEv
}
{
   <insert a suppression name here>
   Memcheck:Leak
   fun:_vgrZU_libstdcZpZpZa__Znwm
   fun:_ZN4ROOT25GenerateInitInstanceLocalEPK10TAttMarker
   fun:_Z41__static_initialization_and_destruction_0ii
   fun:_GLOBAL__I__ZN4ROOT20GenerateInitInstanceEPK7TBuffer
   obj:/minerva/app/users/perdue/GENIE/support/root/lib/libCore.so
   obj:/minerva/app/users/perdue/GENIE/support/root/lib/libCore.so
   obj:*
   obj:*
   obj:*
   obj:*
   obj:*
   obj:*
   fun:_vgrZU_libstdcZpZpZa__Znwm
   fun:_ZNSs4_Rep9_S_createEmmRKSaIcE
   fun:_ZNSs4_Rep8_M_cloneERKSaIcEm
   fun:_ZNSs7reserveEm
   fun:_ZN10TClassEdit9CleanTypeEPKciPS1_
   fun:_ZN10TClassEdit8GetSplitEPKcRSt6vectorISsSaISsEERiNS_8EModTypeE
   fun:_ZN10TClassEdit10TSplitTypeC1EPKcNS_8EModTypeE
   fun:_ZN11TClassTable3AddEPKcsRKSt9type_infoPFvvEi
   fun:_ZNK4ROOT20TDefaultInitBehavior8RegisterEPKcsRKSt9type_infoPFvvEi
   fun:_ZN4ROOT17TGenericClassInfoC1EPKciS2_iRKSt9type_infoPKNS_13TInitBehaviorEPFvvEP16TVirtualIsAProxyii
   fun:_ZN4ROOT25GenerateInitInstanceLocalEPK10TAttMarker
   fun:_Z41__static_initialization_and_destruction_0ii
}
{
   <insert a suppression name here>
   Memcheck:Leak
   fun:_vgrZU_libstdcZpZpZa__Znwm
   fun:_ZN4ROOT25GenerateInitInstanceLocalEPK8TAttLine
   fun:_Z41__static_initialization_and_destruction_0ii
   fun:_GLOBAL__I__ZN4ROOT20GenerateInitInstanceEPK7TBuffer
   obj:/minerva/app/users/perdue/GENIE/support/root/lib/libCore.so
   obj:/minerva/app/users/perdue/GENIE/support/root/lib/libCore.so
   obj:*
   obj:*
   obj:*
   obj:*
   obj:*
   obj:*
   fun:_vgrZU_libstdcZpZpZa__Znwm
   fun:_ZNSs4_Rep9_S_createEmmRKSaIcE
   fun:_ZNSs4_Rep8_M_cloneERKSaIcEm
   fun:_ZNSs7reserveEm
   fun:_ZN10TClassEdit9CleanTypeEPKciPS1_
   fun:_ZN10TClassEdit8GetSplitEPKcRSt6vectorISsSaISsEERiNS_8EModTypeE
   fun:_ZN10TClassEdit10TSplitTypeC1EPKcNS_8EModTypeE
   fun:_ZN11TClassTable3AddEPKcsRKSt9type_infoPFvvEi
   fun:_ZNK4ROOT20TDefaultInitBehavior8RegisterEPKcsRKSt9type_infoPFvvEi
   fun:_ZN4ROOT17TGenericClassInfoC1EPKciS2_iRKSt9type_infoPKNS_13TInitBehaviorEPFvvEP16TVirtualIsAProxyii
   fun:_ZN4ROOT25GenerateInitInstanceLocalEPK8TAttLine
   fun:_Z41__static_initialization_and_destruction_0ii
}
{
   <insert a suppression name here>
   Memcheck:Leak
   fun:_vgrZU_libstdcZpZpZa__Znwm
   fun:_ZN4ROOT25GenerateInitInstanceLocalEPK8TAttFill
   fun:_Z41__static_initialization_and_destruction_0ii
   fun:_GLOBAL__I__ZN4ROOT20GenerateInitInstanceEPK7TBuffer
   obj:/minerva/app/users/perdue/GENIE/support/root/lib/libCore.so
   obj:/minerva/app/users/perdue/GENIE/support/root/lib/libCore.so
   obj:*
   obj:*
   obj:*
   obj:*
   obj:*
   obj:*
   fun:_vgrZU_libstdcZpZpZa__Znwm
   fun:_ZNSs4_Rep9_S_createEmmRKSaIcE
   fun:_ZNSs4_Rep8_M_cloneERKSaIcEm
   fun:_ZNSs7reserveEm
   fun:_ZN10TClassEdit9CleanTypeEPKciPS1_
   fun:_ZN10TClassEdit8GetSplitEPKcRSt6vectorISsSaISsEERiNS_8EModTypeE
   fun:_ZN10TClassEdit10TSplitTypeC1EPKcNS_8EModTypeE
   fun:_ZN11TClassTable3AddEPKcsRKSt9type_infoPFvvEi
   fun:_ZNK4ROOT20TDefaultInitBehavior8RegisterEPKcsRKSt9type_infoPFvvEi
   fun:_ZN4ROOT17TGenericClassInfoC1EPKciS2_iRKSt9type_infoPKNS_13TInitBehaviorEPFvvEP16TVirtualIsAProxyii
   fun:_ZN4ROOT25GenerateInitInstanceLocalEPK8TAttFill
   fun:_Z41__static_initialization_and_destruction_0ii
}
{
   <insert a suppression name here>
   Memcheck:Leak
   fun:_vgrZU_libstdcZpZpZa__Znwm
   fun:_ZN4ROOT25GenerateInitInstanceLocalEPK8TAttAxis
   fun:_Z41__static_initialization_and_destruction_0ii
   fun:_GLOBAL__I__ZN4ROOT20GenerateInitInstanceEPK7TBuffer
   obj:/minerva/app/users/perdue/GENIE/support/root/lib/libCore.so
   obj:/minerva/app/users/perdue/GENIE/support/root/lib/libCore.so
   obj:*
   obj:*
   obj:*
   obj:*
   obj:*
   obj:*
   fun:_vgrZU_libstdcZpZpZa__Znwm
   fun:_ZNSs4_Rep9_S_createEmmRKSaIcE
   fun:_ZNSs4_Rep8_M_cloneERKSaIcEm
   fun:_ZNSs7reserveEm
   fun:_ZN10TClassEdit9CleanTypeEPKciPS1_
   fun:_ZN10TClassEdit8GetSplitEPKcRSt6vectorISsSaISsEERiNS_8EModTypeE
   fun:_ZN10TClassEdit10TSplitTypeC1EPKcNS_8EModTypeE
   fun:_ZN11TClassTable3AddEPKcsRKSt9type_infoPFvvEi
   fun:_ZNK4ROOT20TDefaultInitBehavior8RegisterEPKcsRKSt9type_infoPFvvEi
   fun:_ZN4ROOT17TGenericClassInfoC1EPKciS2_iRKSt9type_infoPKNS_13TInitBehaviorEPFvvEP16TVirtualIsAProxyii
   fun:_ZN4ROOT25GenerateInitInstanceLocalEPK8TAttAxis
   fun:_Z41__static_initialization_and_destruction_0ii
}
{
   <insert a suppression name here>
   Memcheck:Leak
   fun:_vgrZU_libstdcZpZpZa__Znwm
   fun:_ZN4ROOT25GenerateInitInstanceLocalEPK4TRef
   fun:_Z41__static_initialization_and_destruction_0ii
   obj:/minerva/app/users/perdue/GENIE/support/root/lib/libCore.so
   obj:/minerva/app/users/perdue/GENIE/support/root/lib/libCore.so
   obj:*
   obj:*
   obj:*
   obj:*
   obj:*
   obj:*
   fun:_vgrZU_libstdcZpZpZa__Znwm
   fun:_ZNSs4_Rep9_S_createEmmRKSaIcE
   fun:_ZNSs4_Rep8_M_cloneERKSaIcEm
   fun:_ZNSs7reserveEm
   fun:_ZN10TClassEdit9CleanTypeEPKciPS1_
   fun:_ZN10TClassEdit8GetSplitEPKcRSt6vectorISsSaISsEERiNS_8EModTypeE
   fun:_ZN10TClassEdit10TSplitTypeC1EPKcNS_8EModTypeE
   fun:_ZN11TClassTable3AddEPKcsRKSt9type_infoPFvvEi
   fun:_ZNK4ROOT20TDefaultInitBehavior8RegisterEPKcsRKSt9type_infoPFvvEi
   fun:_ZN4ROOT17TGenericClassInfoC1EPKciS2_iRKSt9type_infoPKNS_13TInitBehaviorEPFvvEP16TVirtualIsAProxyii
   fun:_ZN4ROOT25GenerateInitInstanceLocalEPK4TRef
   fun:_Z41__static_initialization_and_destruction_0ii
   obj:/minerva/app/users/perdue/GENIE/support/root/lib/libCore.so
}
{
   <insert a suppression name here>
   Memcheck:Leak
   fun:_vgrZU_libstdcZpZpZa__Znwm
   fun:_ZN4ROOT25GenerateInitInstanceLocalEPK10TObjString
   fun:_Z41__static_initialization_and_destruction_0ii
   obj:/minerva/app/users/perdue/GENIE/support/root/lib/libCore.so
   obj:/minerva/app/users/perdue/GENIE/support/root/lib/libCore.so
   obj:*
   obj:*
   obj:*
   obj:*
   obj:*
   obj:*
   fun:_vgrZU_libstdcZpZpZa__Znwm
   fun:_ZNSs4_Rep9_S_createEmmRKSaIcE
   fun:_ZNSs4_Rep8_M_cloneERKSaIcEm
   fun:_ZNSs7reserveEm
   fun:_ZN10TClassEdit9CleanTypeEPKciPS1_
   fun:_ZN10TClassEdit8GetSplitEPKcRSt6vectorISsSaISsEERiNS_8EModTypeE
   fun:_ZN10TClassEdit10TSplitTypeC1EPKcNS_8EModTypeE
   fun:_ZN11TClassTable3AddEPKcsRKSt9type_infoPFvvEi
   fun:_ZNK4ROOT20TDefaultInitBehavior8RegisterEPKcsRKSt9type_infoPFvvEi
   fun:_ZN4ROOT17TGenericClassInfoC1EPKciS2_iRKSt9type_infoPKNS_13TInitBehaviorEPFvvEP16TVirtualIsAProxyii
   fun:_ZN4ROOT25GenerateInitInstanceLocalEPK10TObjString
   fun:_Z41__static_initialization_and_destruction_0ii
   obj:/minerva/app/users/perdue/GENIE/support/root/lib/libCore.so
}
{
   <insert a suppression name here>
   Memcheck:Leak
   fun:_vgrZU_libstdcZpZpZa__Znwm
   fun:_ZN4ROOT25GenerateInitInstanceLocalEPK7TFolder
   fun:_Z41__static_initialization_and_destruction_0ii
   obj:/minerva/app/users/perdue/GENIE/support/root/lib/libCore.so
   obj:/minerva/app/users/perdue/GENIE/support/root/lib/libCore.so
   obj:*
   obj:*
   obj:*
   obj:*
   obj:*
   obj:*
   fun:_vgrZU_libstdcZpZpZa__Znwm
   fun:_ZNSs4_Rep9_S_createEmmRKSaIcE
   fun:_ZNSs4_Rep8_M_cloneERKSaIcEm
   fun:_ZNSs7reserveEm
   fun:_ZN10TClassEdit9CleanTypeEPKciPS1_
   fun:_ZN10TClassEdit8GetSplitEPKcRSt6vectorISsSaISsEERiNS_8EModTypeE
   fun:_ZN10TClassEdit10TSplitTypeC1EPKcNS_8EModTypeE
   fun:_ZN11TClassTable3AddEPKcsRKSt9type_infoPFvvEi
   fun:_ZNK4ROOT20TDefaultInitBehavior8RegisterEPKcsRKSt9type_infoPFvvEi
   fun:_ZN4ROOT17TGenericClassInfoC1EPKciS2_iRKSt9type_infoPKNS_13TInitBehaviorEPFvvEP16TVirtualIsAProxyii
   fun:_ZN4ROOT25GenerateInitInstanceLocalEPK7TFolder
   fun:_Z41__static_initialization_and_destruction_0ii
   obj:/minerva/app/users/perdue/GENIE/support/root/lib/libCore.so
}
{
   <insert a suppression name here>
   Memcheck:Leak
   fun:_vgrZU_libstdcZpZpZa__Znwm
   fun:_ZN4ROOT25GenerateInitInstanceLocalEPK7TString
   fun:_Z41__static_initialization_and_destruction_0ii
   obj:/minerva/app/users/perdue/GENIE/support/root/lib/libCore.so
   obj:/minerva/app/users/perdue/GENIE/support/root/lib/libCore.so
   obj:*
   obj:*
   obj:*
   obj:*
   obj:*
   obj:*
   fun:_vgrZU_libstdcZpZpZa__Znwm
   fun:_ZNSs4_Rep9_S_createEmmRKSaIcE
   fun:_ZNSs4_Rep8_M_cloneERKSaIcEm
   fun:_ZNSs7reserveEm
   fun:_ZN10TClassEdit9CleanTypeEPKciPS1_
   fun:_ZN10TClassEdit8GetSplitEPKcRSt6vectorISsSaISsEERiNS_8EModTypeE
   fun:_ZN10TClassEdit10TSplitTypeC1EPKcNS_8EModTypeE
   fun:_ZN11TClassTable3AddEPKcsRKSt9type_infoPFvvEi
   fun:_ZNK4ROOT20TDefaultInitBehavior8RegisterEPKcsRKSt9type_infoPFvvEi
   fun:_ZN4ROOT17TGenericClassInfoC1EPKciS2_iRKSt9type_infoPKNS_13TInitBehaviorEPFvvEP16TVirtualIsAProxyii
   fun:_ZN4ROOT25GenerateInitInstanceLocalEPK7TString
   fun:_Z41__static_initialization_and_destruction_0ii
   obj:/minerva/app/users/perdue/GENIE/support/root/lib/libCore.so
}
{
   <insert a suppression name here>
   Memcheck:Leak
   fun:_vgrZU_libstdcZpZpZa__Znwm
   fun:_ZN4ROOT25GenerateInitInstanceLocalEPK6TNamed
   fun:_Z41__static_initialization_and_destruction_0ii
   obj:/minerva/app/users/perdue/GENIE/support/root/lib/libCore.so
   obj:/minerva/app/users/perdue/GENIE/support/root/lib/libCore.so
   obj:*
   obj:*
   obj:*
   obj:*
   obj:*
   obj:*
   fun:_vgrZU_libstdcZpZpZa__Znwm
   fun:_ZNSs4_Rep9_S_createEmmRKSaIcE
   fun:_ZNSs4_Rep8_M_cloneERKSaIcEm
   fun:_ZNSs7reserveEm
   fun:_ZN10TClassEdit9CleanTypeEPKciPS1_
   fun:_ZN10TClassEdit8GetSplitEPKcRSt6vectorISsSaISsEERiNS_8EModTypeE
   fun:_ZN10TClassEdit10TSplitTypeC1EPKcNS_8EModTypeE
   fun:_ZN11TClassTable3AddEPKcsRKSt9type_infoPFvvEi
   fun:_ZNK4ROOT20TDefaultInitBehavior8RegisterEPKcsRKSt9type_infoPFvvEi
   fun:_ZN4ROOT17TGenericClassInfoC1EPKciS2_iRKSt9type_infoPKNS_13TInitBehaviorEPFvvEP16TVirtualIsAProxyii
   fun:_ZN4ROOT25GenerateInitInstanceLocalEPK6TNamed
   fun:_Z41__static_initialization_and_destruction_0ii
   obj:/minerva/app/users/perdue/GENIE/support/root/lib/libCore.so
}
{
   <insert a suppression name here>
   Memcheck:Leak
   fun:_vgrZU_libstdcZpZpZa__Znwm
   fun:_ZN4ROOT25GenerateInitInstanceLocalEPK7TObject
   fun:_Z41__static_initialization_and_destruction_0ii
   obj:/minerva/app/users/perdue/GENIE/support/root/lib/libCore.so
   obj:/minerva/app/users/perdue/GENIE/support/root/lib/libCore.so
   obj:*
   obj:*
   obj:*
   obj:*
}
{
   <insert a suppression name here>
   Memcheck:Leak
   fun:_vgrZU_libstdcZpZpZa__Znwm
   fun:_ZN4ROOT25GenerateInitInstanceLocalEPK9TRefArray
   fun:_Z41__static_initialization_and_destruction_0ii
   obj:/minerva/app/users/perdue/GENIE/support/root/lib/libCore.so
   obj:/minerva/app/users/perdue/GENIE/support/root/lib/libCore.so
   obj:*
   obj:*
   obj:*
   obj:*
   obj:*
   obj:*
   fun:_vgrZU_libstdcZpZpZa__Znwm
   fun:_ZNSs4_Rep9_S_createEmmRKSaIcE
   fun:_ZNSs4_Rep8_M_cloneERKSaIcEm
   fun:_ZNSs7reserveEm
   fun:_ZN10TClassEdit9CleanTypeEPKciPS1_
   fun:_ZN10TClassEdit8GetSplitEPKcRSt6vectorISsSaISsEERiNS_8EModTypeE
   fun:_ZN10TClassEdit10TSplitTypeC1EPKcNS_8EModTypeE
   fun:_ZN11TClassTable3AddEPKcsRKSt9type_infoPFvvEi
   fun:_ZNK4ROOT20TDefaultInitBehavior8RegisterEPKcsRKSt9type_infoPFvvEi
   fun:_ZN4ROOT17TGenericClassInfoC1EPKciS2_iRKSt9type_infoPKNS_13TInitBehaviorEPFvvEP16TVirtualIsAProxyii
   fun:_ZN4ROOT25GenerateInitInstanceLocalEPK9TRefArray
   fun:_Z41__static_initialization_and_destruction_0ii
   obj:/minerva/app/users/perdue/GENIE/support/root/lib/libCore.so
}
{
   <insert a suppression name here>
   Memcheck:Leak
   fun:_vgrZU_libstdcZpZpZa__Znwm
   fun:_ZN4ROOT25GenerateInitInstanceLocalEPK9THashList
   fun:_Z41__static_initialization_and_destruction_0ii
   obj:/minerva/app/users/perdue/GENIE/support/root/lib/libCore.so
   obj:/minerva/app/users/perdue/GENIE/support/root/lib/libCore.so
   obj:*
   obj:*
   obj:*
   obj:*
   obj:*
   obj:*
   fun:_vgrZU_libstdcZpZpZa__Znwm
   fun:_ZNSs4_Rep9_S_createEmmRKSaIcE
   fun:_ZNSs4_Rep8_M_cloneERKSaIcEm
   fun:_ZNSs7reserveEm
   fun:_ZN10TClassEdit9CleanTypeEPKciPS1_
   fun:_ZN10TClassEdit8GetSplitEPKcRSt6vectorISsSaISsEERiNS_8EModTypeE
   fun:_ZN10TClassEdit10TSplitTypeC1EPKcNS_8EModTypeE
   fun:_ZN11TClassTable3AddEPKcsRKSt9type_infoPFvvEi
   fun:_ZNK4ROOT20TDefaultInitBehavior8RegisterEPKcsRKSt9type_infoPFvvEi
   fun:_ZN4ROOT17TGenericClassInfoC1EPKciS2_iRKSt9type_infoPKNS_13TInitBehaviorEPFvvEP16TVirtualIsAProxyii
   fun:_ZN4ROOT25GenerateInitInstanceLocalEPK9THashList
   fun:_Z41__static_initialization_and_destruction_0ii
   obj:/minerva/app/users/perdue/GENIE/support/root/lib/libCore.so
}
{
   <insert a suppression name here>
   Memcheck:Leak
   fun:_vgrZU_libstdcZpZpZa__Znwm
   fun:_ZN4ROOT25GenerateInitInstanceLocalEPK14TSeqCollection
   fun:_Z41__static_initialization_and_destruction_0ii
   obj:/minerva/app/users/perdue/GENIE/support/root/lib/libCore.so
   obj:/minerva/app/users/perdue/GENIE/support/root/lib/libCore.so
   obj:*
   obj:*
   obj:*
   obj:*
   obj:*
   obj:*
   fun:_vgrZU_libstdcZpZpZa__Znwm
   fun:_ZNSs4_Rep9_S_createEmmRKSaIcE
   fun:_ZNSs4_Rep8_M_cloneERKSaIcEm
   fun:_ZNSs7reserveEm
   fun:_ZN10TClassEdit9CleanTypeEPKciPS1_
   fun:_ZN10TClassEdit8GetSplitEPKcRSt6vectorISsSaISsEERiNS_8EModTypeE
   fun:_ZN10TClassEdit10TSplitTypeC1EPKcNS_8EModTypeE
   fun:_ZN11TClassTable3AddEPKcsRKSt9type_infoPFvvEi
   fun:_ZNK4ROOT20TDefaultInitBehavior8RegisterEPKcsRKSt9type_infoPFvvEi
   fun:_ZN4ROOT17TGenericClassInfoC1EPKciS2_iRKSt9type_infoPKNS_13TInitBehaviorEPFvvEP16TVirtualIsAProxyii
   fun:_ZN4ROOT25GenerateInitInstanceLocalEPK14TSeqCollection
   fun:_Z41__static_initialization_and_destruction_0ii
   obj:/minerva/app/users/perdue/GENIE/support/root/lib/libCore.so
}
{
   <insert a suppression name here>
   Memcheck:Leak
   fun:_vgrZU_libstdcZpZpZa__Znwm
   fun:_ZN4ROOT25GenerateInitInstanceLocalEPK5TBits
   fun:_Z41__static_initialization_and_destruction_0ii
   obj:/minerva/app/users/perdue/GENIE/support/root/lib/libCore.so
   obj:/minerva/app/users/perdue/GENIE/support/root/lib/libCore.so
   obj:*
   obj:*
   obj:*
   obj:*
   obj:*
   obj:*
   fun:_vgrZU_libstdcZpZpZa__Znwm
   fun:_ZNSs4_Rep9_S_createEmmRKSaIcE
   fun:_ZNSs4_Rep8_M_cloneERKSaIcEm
   fun:_ZNSs7reserveEm
   fun:_ZN10TClassEdit9CleanTypeEPKciPS1_
   fun:_ZN10TClassEdit8GetSplitEPKcRSt6vectorISsSaISsEERiNS_8EModTypeE
   fun:_ZN10TClassEdit10TSplitTypeC1EPKcNS_8EModTypeE
   fun:_ZN11TClassTable3AddEPKcsRKSt9type_infoPFvvEi
   fun:_ZNK4ROOT20TDefaultInitBehavior8RegisterEPKcsRKSt9type_infoPFvvEi
   fun:_ZN4ROOT17TGenericClassInfoC1EPKciS2_iRKSt9type_infoPKNS_13TInitBehaviorEPFvvEP16TVirtualIsAProxyii
   fun:_ZN4ROOT25GenerateInitInstanceLocalEPK5TBits
   fun:_Z41__static_initialization_and_destruction_0ii
   obj:/minerva/app/users/perdue/GENIE/support/root/lib/libCore.so
}
{
   <insert a suppression name here>
   Memcheck:Leak
   fun:_vgrZU_libstdcZpZpZa__Znwm
   fun:_ZN4ROOT25GenerateInitInstanceLocalEPK7TArrayI
   fun:_Z41__static_initialization_and_destruction_0ii
   obj:/minerva/app/users/perdue/GENIE/support/root/lib/libCore.so
   obj:/minerva/app/users/perdue/GENIE/support/root/lib/libCore.so
   obj:*
   obj:*
   obj:*
   obj:*
   obj:*
   obj:*
   fun:_vgrZU_libstdcZpZpZa__Znwm
   fun:_ZNSs4_Rep9_S_createEmmRKSaIcE
   fun:_ZNSs4_Rep8_M_cloneERKSaIcEm
   fun:_ZNSs7reserveEm
   fun:_ZN10TClassEdit9CleanTypeEPKciPS1_
   fun:_ZN10TClassEdit8GetSplitEPKcRSt6vectorISsSaISsEERiNS_8EModTypeE
   fun:_ZN10TClassEdit10TSplitTypeC1EPKcNS_8EModTypeE
   fun:_ZN11TClassTable3AddEPKcsRKSt9type_infoPFvvEi
   fun:_ZNK4ROOT20TDefaultInitBehavior8RegisterEPKcsRKSt9type_infoPFvvEi
   fun:_ZN4ROOT17TGenericClassInfoC1EPKciS2_iRKSt9type_infoPKNS_13TInitBehaviorEPFvvEP16TVirtualIsAProxyii
   fun:_ZN4ROOT25GenerateInitInstanceLocalEPK7TArrayI
   fun:_Z41__static_initialization_and_destruction_0ii
   obj:/minerva/app/users/perdue/GENIE/support/root/lib/libCore.so
}
{
   <insert a suppression name here>
   Memcheck:Leak
   fun:_vgrZU_libstdcZpZpZa__Znwm
   fun:_ZN4ROOT25GenerateInitInstanceLocalEPK7TArrayF
   fun:_Z41__static_initialization_and_destruction_0ii
   obj:/minerva/app/users/perdue/GENIE/support/root/lib/libCore.so
   obj:/minerva/app/users/perdue/GENIE/support/root/lib/libCore.so
   obj:*
   obj:*
   obj:*
   obj:*
   obj:*
   obj:*
   fun:_vgrZU_libstdcZpZpZa__Znwm
   fun:_ZNSs4_Rep9_S_createEmmRKSaIcE
   fun:_ZNSs4_Rep8_M_cloneERKSaIcEm
   fun:_ZNSs7reserveEm
   fun:_ZN10TClassEdit9CleanTypeEPKciPS1_
   fun:_ZN10TClassEdit8GetSplitEPKcRSt6vectorISsSaISsEERiNS_8EModTypeE
   fun:_ZN10TClassEdit10TSplitTypeC1EPKcNS_8EModTypeE
   fun:_ZN11TClassTable3AddEPKcsRKSt9type_infoPFvvEi
   fun:_ZNK4ROOT20TDefaultInitBehavior8RegisterEPKcsRKSt9type_infoPFvvEi
   fun:_ZN4ROOT17TGenericClassInfoC1EPKciS2_iRKSt9type_infoPKNS_13TInitBehaviorEPFvvEP16TVirtualIsAProxyii
   fun:_ZN4ROOT25GenerateInitInstanceLocalEPK7TArrayF
   fun:_Z41__static_initialization_and_destruction_0ii
   obj:/minerva/app/users/perdue/GENIE/support/root/lib/libCore.so
}
{
   <insert a suppression name here>
   Memcheck:Leak
   fun:_vgrZU_libstdcZpZpZa__Znwm
   fun:_ZN4ROOT25GenerateInitInstanceLocalEPK7TArrayD
   fun:_Z41__static_initialization_and_destruction_0ii
   obj:/minerva/app/users/perdue/GENIE/support/root/lib/libCore.so
   obj:/minerva/app/users/perdue/GENIE/support/root/lib/libCore.so
   obj:*
   obj:*
   obj:*
   obj:*
   obj:*
   obj:*
   fun:_vgrZU_libstdcZpZpZa__Znwm
   fun:_ZNSs4_Rep9_S_createEmmRKSaIcE
   fun:_ZNSs4_Rep8_M_cloneERKSaIcEm
   fun:_ZNSs7reserveEm
   fun:_ZN10TClassEdit9CleanTypeEPKciPS1_
   fun:_ZN10TClassEdit8GetSplitEPKcRSt6vectorISsSaISsEERiNS_8EModTypeE
   fun:_ZN10TClassEdit10TSplitTypeC1EPKcNS_8EModTypeE
   fun:_ZN11TClassTable3AddEPKcsRKSt9type_infoPFvvEi
   fun:_ZNK4ROOT20TDefaultInitBehavior8RegisterEPKcsRKSt9type_infoPFvvEi
   fun:_ZN4ROOT17TGenericClassInfoC1EPKciS2_iRKSt9type_infoPKNS_13TInitBehaviorEPFvvEP16TVirtualIsAProxyii
   fun:_ZN4ROOT25GenerateInitInstanceLocalEPK7TArrayD
   fun:_Z41__static_initialization_and_destruction_0ii
   obj:/minerva/app/users/perdue/GENIE/support/root/lib/libCore.so
}
{
   <insert a suppression name here>
   Memcheck:Leak
   fun:_vgrZU_libstdcZpZpZa__Znwm
   fun:_ZN4ROOT25GenerateInitInstanceLocalEPK6TArray
   fun:_Z41__static_initialization_and_destruction_0ii
   obj:/minerva/app/users/perdue/GENIE/support/root/lib/libCore.so
   obj:/minerva/app/users/perdue/GENIE/support/root/lib/libCore.so
   obj:*
   obj:*
   obj:*
   obj:*
   obj:*
   obj:*
   fun:_vgrZU_libstdcZpZpZa__Znwm
   fun:_ZNSs4_Rep9_S_createEmmRKSaIcE
   fun:_ZNSs4_Rep8_M_cloneERKSaIcEm
   fun:_ZNSs7reserveEm
   fun:_ZN10TClassEdit9CleanTypeEPKciPS1_
   fun:_ZN10TClassEdit8GetSplitEPKcRSt6vectorISsSaISsEERiNS_8EModTypeE
   fun:_ZN10TClassEdit10TSplitTypeC1EPKcNS_8EModTypeE
   fun:_ZN11TClassTable3AddEPKcsRKSt9type_infoPFvvEi
   fun:_ZNK4ROOT20TDefaultInitBehavior8RegisterEPKcsRKSt9type_infoPFvvEi
   fun:_ZN4ROOT17TGenericClassInfoC1EPKciS2_iRKSt9type_infoPKNS_13TInitBehaviorEPFvvEP16TVirtualIsAProxyii
   fun:_ZN4ROOT25GenerateInitInstanceLocalEPK6TArray
   fun:_Z41__static_initialization_and_destruction_0ii
   obj:/minerva/app/users/perdue/GENIE/support/root/lib/libCore.so
}
{
   <insert a suppression name here>
   Memcheck:Leak
   fun:_vgrZU_libstdcZpZpZa__Znwm
   fun:_ZN4ROOT25GenerateInitInstanceLocalEPK9TRefTable
   fun:_Z41__static_initialization_and_destruction_0ii
   obj:/minerva/app/users/perdue/GENIE/support/root/lib/libCore.so
   obj:/minerva/app/users/perdue/GENIE/support/root/lib/libCore.so
   obj:*
   obj:*
   obj:*
   obj:*
}
{
   <insert a suppression name here>
   Memcheck:Leak
   fun:_vgrZU_libstdcZpZpZa__Znwm
   fun:_ZN4ROOT25GenerateInitInstanceLocalEPK12TClonesArray
   fun:_Z41__static_initialization_and_destruction_0ii
   obj:/minerva/app/users/perdue/GENIE/support/root/lib/libCore.so
   obj:/minerva/app/users/perdue/GENIE/support/root/lib/libCore.so
   obj:*
   obj:*
   obj:*
   obj:*
   obj:*
   obj:*
   fun:_vgrZU_libstdcZpZpZa__Znwm
   fun:_ZNSs4_Rep9_S_createEmmRKSaIcE
   fun:_ZNSs4_Rep8_M_cloneERKSaIcEm
   fun:_ZNSs7reserveEm
   fun:_ZN10TClassEdit9CleanTypeEPKciPS1_
   fun:_ZN10TClassEdit8GetSplitEPKcRSt6vectorISsSaISsEERiNS_8EModTypeE
   fun:_ZN10TClassEdit10TSplitTypeC1EPKcNS_8EModTypeE
   fun:_ZN11TClassTable3AddEPKcsRKSt9type_infoPFvvEi
   fun:_ZNK4ROOT20TDefaultInitBehavior8RegisterEPKcsRKSt9type_infoPFvvEi
   fun:_ZN4ROOT17TGenericClassInfoC1EPKciS2_iRKSt9type_infoPKNS_13TInitBehaviorEPFvvEP16TVirtualIsAProxyii
   fun:_ZN4ROOT25GenerateInitInstanceLocalEPK12TClonesArray
   fun:_Z41__static_initialization_and_destruction_0ii
   obj:/minerva/app/users/perdue/GENIE/support/root/lib/libCore.so
}
{
   <insert a suppression name here>
   Memcheck:Leak
   fun:_vgrZU_libstdcZpZpZa__Znwm
   fun:_ZN4ROOT25GenerateInitInstanceLocalEPK9TObjArray
   fun:_Z41__static_initialization_and_destruction_0ii
   obj:/minerva/app/users/perdue/GENIE/support/root/lib/libCore.so
   obj:/minerva/app/users/perdue/GENIE/support/root/lib/libCore.so
   obj:*
   obj:*
   obj:*
   obj:*
   obj:*
   obj:*
   fun:_vgrZU_libstdcZpZpZa__Znwm
   fun:_ZNSs4_Rep9_S_createEmmRKSaIcE
   fun:_ZNSs4_Rep8_M_cloneERKSaIcEm
   fun:_ZNSs7reserveEm
   fun:_ZN10TClassEdit9CleanTypeEPKciPS1_
   fun:_ZN10TClassEdit8GetSplitEPKcRSt6vectorISsSaISsEERiNS_8EModTypeE
   fun:_ZN10TClassEdit10TSplitTypeC1EPKcNS_8EModTypeE
   fun:_ZN11TClassTable3AddEPKcsRKSt9type_infoPFvvEi
   fun:_ZNK4ROOT20TDefaultInitBehavior8RegisterEPKcsRKSt9type_infoPFvvEi
   fun:_ZN4ROOT17TGenericClassInfoC1EPKciS2_iRKSt9type_infoPKNS_13TInitBehaviorEPFvvEP16TVirtualIsAProxyii
   fun:_ZN4ROOT25GenerateInitInstanceLocalEPK9TObjArray
   fun:_Z41__static_initialization_and_destruction_0ii
   obj:/minerva/app/users/perdue/GENIE/support/root/lib/libCore.so
}
{
   <insert a suppression name here>
   Memcheck:Leak
   fun:_vgrZU_libstdcZpZpZa__Znwm
   fun:_ZN4ROOT25GenerateInitInstanceLocalEPK5TList
   fun:_Z41__static_initialization_and_destruction_0ii
   obj:/minerva/app/users/perdue/GENIE/support/root/lib/libCore.so
   obj:/minerva/app/users/perdue/GENIE/support/root/lib/libCore.so
   obj:*
   obj:*
   obj:*
   obj:*
}
{
   <insert a suppression name here>
   Memcheck:Leak
   fun:_vgrZU_libstdcZpZpZa__Znwm
   fun:_ZN4ROOT25GenerateInitInstanceLocalEPK11TCollection
   fun:_Z41__static_initialization_and_destruction_0ii
   obj:/minerva/app/users/perdue/GENIE/support/root/lib/libCore.so
   obj:/minerva/app/users/perdue/GENIE/support/root/lib/libCore.so
   obj:*
   obj:*
   obj:*
   obj:*
}
{
   <insert a suppression name here>
   Memcheck:Leak
   fun:_vgrZU_libstdcZpZpZa__Znwm
   fun:_ZN4ROOT25GenerateInitInstanceLocalEPK19TStreamerArtificial
   fun:_Z41__static_initialization_and_destruction_0ii
   obj:/minerva/app/users/perdue/GENIE/support/root/lib/libCore.so
   obj:/minerva/app/users/perdue/GENIE/support/root/lib/libCore.so
   obj:*
   obj:*
   obj:*
   obj:*
   obj:*
   obj:*
   fun:_vgrZU_libstdcZpZpZa__Znwm
   fun:_ZNSs4_Rep9_S_createEmmRKSaIcE
   fun:_ZNSs4_Rep8_M_cloneERKSaIcEm
   fun:_ZNSs7reserveEm
   fun:_ZN10TClassEdit9CleanTypeEPKciPS1_
   fun:_ZN10TClassEdit8GetSplitEPKcRSt6vectorISsSaISsEERiNS_8EModTypeE
   fun:_ZN10TClassEdit10TSplitTypeC1EPKcNS_8EModTypeE
   fun:_ZN11TClassTable3AddEPKcsRKSt9type_infoPFvvEi
   fun:_ZNK4ROOT20TDefaultInitBehavior8RegisterEPKcsRKSt9type_infoPFvvEi
   fun:_ZN4ROOT17TGenericClassInfoC1EPKciS2_iRKSt9type_infoPKNS_13TInitBehaviorEPFvvEP16TVirtualIsAProxyii
   fun:_ZN4ROOT25GenerateInitInstanceLocalEPK19TStreamerArtificial
   fun:_Z41__static_initialization_and_destruction_0ii
   obj:/minerva/app/users/perdue/GENIE/support/root/lib/libCore.so
}
{
   <insert a suppression name here>
   Memcheck:Leak
   fun:_vgrZU_libstdcZpZpZa__Znwm
   fun:_ZN4ROOT25GenerateInitInstanceLocalEPK12TStreamerSTL
   fun:_Z41__static_initialization_and_destruction_0ii
   obj:/minerva/app/users/perdue/GENIE/support/root/lib/libCore.so
   obj:/minerva/app/users/perdue/GENIE/support/root/lib/libCore.so
   obj:*
   obj:*
   obj:*
   obj:*
   obj:*
   obj:*
   fun:_vgrZU_libstdcZpZpZa__Znwm
   fun:_ZNSs4_Rep9_S_createEmmRKSaIcE
   fun:_ZNSs4_Rep8_M_cloneERKSaIcEm
   fun:_ZNSs7reserveEm
   fun:_ZN10TClassEdit9CleanTypeEPKciPS1_
   fun:_ZN10TClassEdit8GetSplitEPKcRSt6vectorISsSaISsEERiNS_8EModTypeE
   fun:_ZN10TClassEdit10TSplitTypeC1EPKcNS_8EModTypeE
   fun:_ZN11TClassTable3AddEPKcsRKSt9type_infoPFvvEi
   fun:_ZNK4ROOT20TDefaultInitBehavior8RegisterEPKcsRKSt9type_infoPFvvEi
   fun:_ZN4ROOT17TGenericClassInfoC1EPKciS2_iRKSt9type_infoPKNS_13TInitBehaviorEPFvvEP16TVirtualIsAProxyii
   fun:_ZN4ROOT25GenerateInitInstanceLocalEPK12TStreamerSTL
   fun:_Z41__static_initialization_and_destruction_0ii
   obj:/minerva/app/users/perdue/GENIE/support/root/lib/libCore.so
}
{
   <insert a suppression name here>
   Memcheck:Leak
   fun:_vgrZU_libstdcZpZpZa__Znwm
   fun:_ZN4ROOT25GenerateInitInstanceLocalEPK15TStreamerString
   fun:_Z41__static_initialization_and_destruction_0ii
   obj:/minerva/app/users/perdue/GENIE/support/root/lib/libCore.so
   obj:/minerva/app/users/perdue/GENIE/support/root/lib/libCore.so
   obj:*
   obj:*
   obj:*
   obj:*
   obj:*
   obj:*
   fun:_vgrZU_libstdcZpZpZa__Znwm
   fun:_ZNSs4_Rep9_S_createEmmRKSaIcE
   fun:_ZNSs4_Rep8_M_cloneERKSaIcEm
   fun:_ZNSs7reserveEm
   fun:_ZN10TClassEdit9CleanTypeEPKciPS1_
   fun:_ZN10TClassEdit8GetSplitEPKcRSt6vectorISsSaISsEERiNS_8EModTypeE
   fun:_ZN10TClassEdit10TSplitTypeC1EPKcNS_8EModTypeE
   fun:_ZN11TClassTable3AddEPKcsRKSt9type_infoPFvvEi
   fun:_ZNK4ROOT20TDefaultInitBehavior8RegisterEPKcsRKSt9type_infoPFvvEi
   fun:_ZN4ROOT17TGenericClassInfoC1EPKciS2_iRKSt9type_infoPKNS_13TInitBehaviorEPFvvEP16TVirtualIsAProxyii
   fun:_ZN4ROOT25GenerateInitInstanceLocalEPK15TStreamerString
   fun:_Z41__static_initialization_and_destruction_0ii
   obj:/minerva/app/users/perdue/GENIE/support/root/lib/libCore.so
}
{
   <insert a suppression name here>
   Memcheck:Leak
   fun:_vgrZU_libstdcZpZpZa__Znwm
   fun:_ZN4ROOT25GenerateInitInstanceLocalEPK22TStreamerObjectPointer
   fun:_Z41__static_initialization_and_destruction_0ii
   obj:/minerva/app/users/perdue/GENIE/support/root/lib/libCore.so
   obj:/minerva/app/users/perdue/GENIE/support/root/lib/libCore.so
   obj:*
   obj:*
   obj:*
   obj:*
   obj:*
   obj:*
   fun:_vgrZU_libstdcZpZpZa__Znwm
   fun:_ZNSs4_Rep9_S_createEmmRKSaIcE
   fun:_ZNSs4_Rep8_M_cloneERKSaIcEm
   fun:_ZNSs7reserveEm
   fun:_ZN10TClassEdit9CleanTypeEPKciPS1_
   fun:_ZN10TClassEdit8GetSplitEPKcRSt6vectorISsSaISsEERiNS_8EModTypeE
   fun:_ZN10TClassEdit10TSplitTypeC1EPKcNS_8EModTypeE
   fun:_ZN11TClassTable3AddEPKcsRKSt9type_infoPFvvEi
   fun:_ZNK4ROOT20TDefaultInitBehavior8RegisterEPKcsRKSt9type_infoPFvvEi
   fun:_ZN4ROOT17TGenericClassInfoC1EPKciS2_iRKSt9type_infoPKNS_13TInitBehaviorEPFvvEP16TVirtualIsAProxyii
   fun:_ZN4ROOT25GenerateInitInstanceLocalEPK22TStreamerObjectPointer
   fun:_Z41__static_initialization_and_destruction_0ii
   obj:/minerva/app/users/perdue/GENIE/support/root/lib/libCore.so
}
{
   <insert a suppression name here>
   Memcheck:Leak
   fun:_vgrZU_libstdcZpZpZa__Znwm
   fun:_ZN4ROOT25GenerateInitInstanceLocalEPK18TStreamerObjectAny
   fun:_Z41__static_initialization_and_destruction_0ii
   obj:/minerva/app/users/perdue/GENIE/support/root/lib/libCore.so
   obj:/minerva/app/users/perdue/GENIE/support/root/lib/libCore.so
   obj:*
   obj:*
   obj:*
   obj:*
   obj:*
   obj:*
   fun:_vgrZU_libstdcZpZpZa__Znwm
   fun:_ZNSs4_Rep9_S_createEmmRKSaIcE
   fun:_ZNSs4_Rep8_M_cloneERKSaIcEm
   fun:_ZNSs7reserveEm
   fun:_ZN10TClassEdit9CleanTypeEPKciPS1_
   fun:_ZN10TClassEdit8GetSplitEPKcRSt6vectorISsSaISsEERiNS_8EModTypeE
   fun:_ZN10TClassEdit10TSplitTypeC1EPKcNS_8EModTypeE
   fun:_ZN11TClassTable3AddEPKcsRKSt9type_infoPFvvEi
   fun:_ZNK4ROOT20TDefaultInitBehavior8RegisterEPKcsRKSt9type_infoPFvvEi
   fun:_ZN4ROOT17TGenericClassInfoC1EPKciS2_iRKSt9type_infoPKNS_13TInitBehaviorEPFvvEP16TVirtualIsAProxyii
   fun:_ZN4ROOT25GenerateInitInstanceLocalEPK18TStreamerObjectAny
   fun:_Z41__static_initialization_and_destruction_0ii
   obj:/minerva/app/users/perdue/GENIE/support/root/lib/libCore.so
}
{
   <insert a suppression name here>
   Memcheck:Leak
   fun:_vgrZU_libstdcZpZpZa__Znwm
   fun:_ZN4ROOT25GenerateInitInstanceLocalEPK15TStreamerObject
   fun:_Z41__static_initialization_and_destruction_0ii
   obj:/minerva/app/users/perdue/GENIE/support/root/lib/libCore.so
   obj:/minerva/app/users/perdue/GENIE/support/root/lib/libCore.so
   obj:*
   obj:*
   obj:*
   obj:*
   obj:*
   obj:*
   fun:_vgrZU_libstdcZpZpZa__Znwm
   fun:_ZNSs4_Rep9_S_createEmmRKSaIcE
   fun:_ZNSs4_Rep8_M_cloneERKSaIcEm
   fun:_ZNSs7reserveEm
   fun:_ZN10TClassEdit9CleanTypeEPKciPS1_
   fun:_ZN10TClassEdit8GetSplitEPKcRSt6vectorISsSaISsEERiNS_8EModTypeE
   fun:_ZN10TClassEdit10TSplitTypeC1EPKcNS_8EModTypeE
   fun:_ZN11TClassTable3AddEPKcsRKSt9type_infoPFvvEi
   fun:_ZNK4ROOT20TDefaultInitBehavior8RegisterEPKcsRKSt9type_infoPFvvEi
   fun:_ZN4ROOT17TGenericClassInfoC1EPKciS2_iRKSt9type_infoPKNS_13TInitBehaviorEPFvvEP16TVirtualIsAProxyii
   fun:_ZN4ROOT25GenerateInitInstanceLocalEPK15TStreamerObject
   fun:_Z41__static_initialization_and_destruction_0ii
   obj:/minerva/app/users/perdue/GENIE/support/root/lib/libCore.so
}
{
   <insert a suppression name here>
   Memcheck:Leak
   fun:_vgrZU_libstdcZpZpZa__Znwm
   fun:_ZN4ROOT25GenerateInitInstanceLocalEPK13TStreamerLoop
   fun:_Z41__static_initialization_and_destruction_0ii
   obj:/minerva/app/users/perdue/GENIE/support/root/lib/libCore.so
   obj:/minerva/app/users/perdue/GENIE/support/root/lib/libCore.so
   obj:*
   obj:*
   obj:*
   obj:*
   obj:*
   obj:*
   fun:_vgrZU_libstdcZpZpZa__Znwm
   fun:_ZNSs4_Rep9_S_createEmmRKSaIcE
   fun:_ZNSs4_Rep8_M_cloneERKSaIcEm
   fun:_ZNSs7reserveEm
   fun:_ZN10TClassEdit9CleanTypeEPKciPS1_
   fun:_ZN10TClassEdit8GetSplitEPKcRSt6vectorISsSaISsEERiNS_8EModTypeE
   fun:_ZN10TClassEdit10TSplitTypeC1EPKcNS_8EModTypeE
   fun:_ZN11TClassTable3AddEPKcsRKSt9type_infoPFvvEi
   fun:_ZNK4ROOT20TDefaultInitBehavior8RegisterEPKcsRKSt9type_infoPFvvEi
   fun:_ZN4ROOT17TGenericClassInfoC1EPKciS2_iRKSt9type_infoPKNS_13TInitBehaviorEPFvvEP16TVirtualIsAProxyii
   fun:_ZN4ROOT25GenerateInitInstanceLocalEPK13TStreamerLoop
   fun:_Z41__static_initialization_and_destruction_0ii
   obj:/minerva/app/users/perdue/GENIE/support/root/lib/libCore.so
}
{
   <insert a suppression name here>
   Memcheck:Leak
   fun:_vgrZU_libstdcZpZpZa__Znwm
   fun:_ZN4ROOT25GenerateInitInstanceLocalEPK21TStreamerBasicPointer
   fun:_Z41__static_initialization_and_destruction_0ii
   obj:/minerva/app/users/perdue/GENIE/support/root/lib/libCore.so
   obj:/minerva/app/users/perdue/GENIE/support/root/lib/libCore.so
   obj:*
   obj:*
   obj:*
   obj:*
   obj:*
   obj:*
   fun:_vgrZU_libstdcZpZpZa__Znwm
   fun:_ZNSs4_Rep9_S_createEmmRKSaIcE
   fun:_ZNSs4_Rep8_M_cloneERKSaIcEm
   fun:_ZNSs7reserveEm
   fun:_ZN10TClassEdit9CleanTypeEPKciPS1_
   fun:_ZN10TClassEdit8GetSplitEPKcRSt6vectorISsSaISsEERiNS_8EModTypeE
   fun:_ZN10TClassEdit10TSplitTypeC1EPKcNS_8EModTypeE
   fun:_ZN11TClassTable3AddEPKcsRKSt9type_infoPFvvEi
   fun:_ZNK4ROOT20TDefaultInitBehavior8RegisterEPKcsRKSt9type_infoPFvvEi
   fun:_ZN4ROOT17TGenericClassInfoC1EPKciS2_iRKSt9type_infoPKNS_13TInitBehaviorEPFvvEP16TVirtualIsAProxyii
   fun:_ZN4ROOT25GenerateInitInstanceLocalEPK21TStreamerBasicPointer
   fun:_Z41__static_initialization_and_destruction_0ii
   obj:/minerva/app/users/perdue/GENIE/support/root/lib/libCore.so
}
{
   <insert a suppression name here>
   Memcheck:Leak
   fun:_vgrZU_libstdcZpZpZa__Znwm
   fun:_ZN4ROOT25GenerateInitInstanceLocalEPK13TStreamerBase
   fun:_Z41__static_initialization_and_destruction_0ii
   obj:/minerva/app/users/perdue/GENIE/support/root/lib/libCore.so
   obj:/minerva/app/users/perdue/GENIE/support/root/lib/libCore.so
   obj:*
   obj:*
   obj:*
   obj:*
   obj:*
   obj:*
   fun:_vgrZU_libstdcZpZpZa__Znwm
   fun:_ZNSs4_Rep9_S_createEmmRKSaIcE
   fun:_ZNSs4_Rep8_M_cloneERKSaIcEm
   fun:_ZNSs7reserveEm
   fun:_ZN10TClassEdit9CleanTypeEPKciPS1_
   fun:_ZN10TClassEdit8GetSplitEPKcRSt6vectorISsSaISsEERiNS_8EModTypeE
   fun:_ZN10TClassEdit10TSplitTypeC1EPKcNS_8EModTypeE
   fun:_ZN11TClassTable3AddEPKcsRKSt9type_infoPFvvEi
   fun:_ZNK4ROOT20TDefaultInitBehavior8RegisterEPKcsRKSt9type_infoPFvvEi
   fun:_ZN4ROOT17TGenericClassInfoC1EPKciS2_iRKSt9type_infoPKNS_13TInitBehaviorEPFvvEP16TVirtualIsAProxyii
   fun:_ZN4ROOT25GenerateInitInstanceLocalEPK13TStreamerBase
   fun:_Z41__static_initialization_and_destruction_0ii
   obj:/minerva/app/users/perdue/GENIE/support/root/lib/libCore.so
}
{
   <insert a suppression name here>
   Memcheck:Leak
   fun:_vgrZU_libstdcZpZpZa__Znwm
   fun:_ZN4ROOT25GenerateInitInstanceLocalEPK18TStreamerBasicType
   fun:_Z41__static_initialization_and_destruction_0ii
   obj:/minerva/app/users/perdue/GENIE/support/root/lib/libCore.so
   obj:/minerva/app/users/perdue/GENIE/support/root/lib/libCore.so
   obj:*
   obj:*
   obj:*
   obj:*
   obj:*
   obj:*
   fun:_vgrZU_libstdcZpZpZa__Znwm
   fun:_ZNSs4_Rep9_S_createEmmRKSaIcE
   fun:_ZNSs4_Rep8_M_cloneERKSaIcEm
   fun:_ZNSs7reserveEm
   fun:_ZN10TClassEdit9CleanTypeEPKciPS1_
   fun:_ZN10TClassEdit8GetSplitEPKcRSt6vectorISsSaISsEERiNS_8EModTypeE
   fun:_ZN10TClassEdit10TSplitTypeC1EPKcNS_8EModTypeE
   fun:_ZN11TClassTable3AddEPKcsRKSt9type_infoPFvvEi
   fun:_ZNK4ROOT20TDefaultInitBehavior8RegisterEPKcsRKSt9type_infoPFvvEi
   fun:_ZN4ROOT17TGenericClassInfoC1EPKciS2_iRKSt9type_infoPKNS_13TInitBehaviorEPFvvEP16TVirtualIsAProxyii
   fun:_ZN4ROOT25GenerateInitInstanceLocalEPK18TStreamerBasicType
   fun:_Z41__static_initialization_and_destruction_0ii
   obj:/minerva/app/users/perdue/GENIE/support/root/lib/libCore.so
}
{
   <insert a suppression name here>
   Memcheck:Leak
   fun:_vgrZU_libstdcZpZpZa__Znwm
   fun:_ZN4ROOT25GenerateInitInstanceLocalEPK16TStreamerElement
   fun:_Z41__static_initialization_and_destruction_0ii
   obj:/minerva/app/users/perdue/GENIE/support/root/lib/libCore.so
   obj:/minerva/app/users/perdue/GENIE/support/root/lib/libCore.so
   obj:*
   obj:*
   obj:*
   obj:*
   obj:*
   obj:*
   fun:_vgrZU_libstdcZpZpZa__Znwm
   fun:_ZNSs4_Rep9_S_createEmmRKSaIcE
   fun:_ZNSs4_Rep8_M_cloneERKSaIcEm
   fun:_ZNSs7reserveEm
   fun:_ZN10TClassEdit9CleanTypeEPKciPS1_
   fun:_ZN10TClassEdit8GetSplitEPKcRSt6vectorISsSaISsEERiNS_8EModTypeE
   fun:_ZN10TClassEdit10TSplitTypeC1EPKcNS_8EModTypeE
   fun:_ZN11TClassTable3AddEPKcsRKSt9type_infoPFvvEi
   fun:_ZNK4ROOT20TDefaultInitBehavior8RegisterEPKcsRKSt9type_infoPFvvEi
   fun:_ZN4ROOT17TGenericClassInfoC1EPKciS2_iRKSt9type_infoPKNS_13TInitBehaviorEPFvvEP16TVirtualIsAProxyii
   fun:_ZN4ROOT25GenerateInitInstanceLocalEPK16TStreamerElement
   fun:_Z41__static_initialization_and_destruction_0ii
   obj:/minerva/app/users/perdue/GENIE/support/root/lib/libCore.so
}
{
   <insert a suppression name here>
   Memcheck:Leak
   fun:_vgrZU_libstdcZpZpZa__Znwm
   fun:_ZN4ROOT25GenerateInitInstanceLocalEPK20TVirtualStreamerInfo
   fun:_Z41__static_initialization_and_destruction_0ii
   obj:/minerva/app/users/perdue/GENIE/support/root/lib/libCore.so
   obj:/minerva/app/users/perdue/GENIE/support/root/lib/libCore.so
   obj:*
   obj:*
   obj:*
   obj:*
   obj:*
   obj:*
   fun:_vgrZU_libstdcZpZpZa__Znwm
   fun:_ZNSs4_Rep9_S_createEmmRKSaIcE
   fun:_ZNSs4_Rep8_M_cloneERKSaIcEm
   fun:_ZNSs7reserveEm
   fun:_ZN10TClassEdit9CleanTypeEPKciPS1_
   fun:_ZN10TClassEdit8GetSplitEPKcRSt6vectorISsSaISsEERiNS_8EModTypeE
   fun:_ZN10TClassEdit10TSplitTypeC1EPKcNS_8EModTypeE
   fun:_ZN11TClassTable3AddEPKcsRKSt9type_infoPFvvEi
   fun:_ZNK4ROOT20TDefaultInitBehavior8RegisterEPKcsRKSt9type_infoPFvvEi
   fun:_ZN4ROOT17TGenericClassInfoC1EPKciS2_iRKSt9type_infoPKNS_13TInitBehaviorEPFvvEP16TVirtualIsAProxyii
   fun:_ZN4ROOT25GenerateInitInstanceLocalEPK20TVirtualStreamerInfo
   fun:_Z41__static_initialization_and_destruction_0ii
   obj:/minerva/app/users/perdue/GENIE/support/root/lib/libCore.so
}
{
   <insert a suppression name here>
   Memcheck:Leak
   fun:_vgrZU_libstdcZpZpZa__Znwm
   fun:_ZN4ROOT25GenerateInitInstanceLocalEPK6TClass
   fun:_Z41__static_initialization_and_destruction_0ii
   obj:/minerva/app/users/perdue/GENIE/support/root/lib/libCore.so
   obj:/minerva/app/users/perdue/GENIE/support/root/lib/libCore.so
   obj:*
   obj:*
   obj:*
   obj:*
}
{
   <insert a suppression name here>
   Memcheck:Leak
   fun:_vgrZU_libstdcZpZpZa__Znwm
   fun:G__add_setup_func
   fun:_ZN29G__cpp_setup_initG__TextInputC1Ev
   fun:_Z41__static_initialization_and_destruction_0ii
   fun:_GLOBAL__I_G__set_cpp_environmentG__TextInput
   obj:/minerva/app/users/perdue/GENIE/support/root/lib/libCore.so
   obj:/minerva/app/users/perdue/GENIE/support/root/lib/libCore.so
   obj:*
   obj:*
   obj:*
   obj:*
}
{
   <insert a suppression name here>
   Memcheck:Leak
   fun:_vgrZU_libstdcZpZpZa__Znwm
   fun:G__loadfile
   fun:G__loadsystemfile
   fun:_ZN5TCint4LoadEPKcb
   fun:_ZN7TSystem4LoadEPKcS1_b
   fun:_ZN5TROOT9LoadClassEPKcS1_b
   fun:_ZN18TVirtualTreePlayer10TreePlayerEP5TTree
   fun:_ZN5TTree9GetPlayerEv
   fun:_ZN5TTree4DrawEPKcS1_S1_xx
   fun:_ZN5genie6Spline12LoadFromTreeEP5TTreeSsSs
   fun:_ZN5genie6SplineC1EP5TTreeSsSs
   fun:_ZN5genie14INukeHadroData17LoadCrossSectionsEv
   fun:_ZN5genie14INukeHadroDataC1Ev
   fun:_ZN5genie14INukeHadroData8InstanceEv
   fun:_ZN5genie11HAIntranuke10LoadConfigEv
   fun:_ZN5genie9Intranuke9ConfigureESs
   fun:_ZNK5genie10AlgFactory20InstantiateAlgorithmESsSs
   fun:_ZN5genie10AlgFactory12GetAlgorithmESsSs
   fun:_ZNK5genie9Algorithm6SubAlgERKSs
   fun:_ZN5genie17HadronTransporter10LoadConfigEv
   fun:_ZN5genie17HadronTransporter9ConfigureESs
   fun:_ZNK5genie10AlgFactory20InstantiateAlgorithmESsSs
   fun:_ZN5genie10AlgFactory12GetAlgorithmESsSs
   fun:_ZNK5genie9Algorithm6SubAlgERKSs
}
{
   <insert a suppression name here>
   Memcheck:Leak
   fun:_vgrZU_libstdcZpZpZa__Znwm
   fun:_ZN9__gnu_cxx13new_allocatorIiE8allocateEmPKv
   fun:_ZNSt12_Vector_baseIiSaIiEE11_M_allocateEm
   fun:_ZNSt6vectorIiSaIiEE13_M_insert_auxEN9__gnu_cxx17__normal_iteratorIPiS1_EERKi
   fun:_ZNSt6vectorIiSaIiEE9push_backERKi
   fun:_ZN5genie11PDGCodeList9push_backEi
   fun:_ZNK5genie16KNOHadronization19GenerateHadronCodesEiid
   fun:_ZNK5genie16KNOHadronization15SelectParticlesEPKNS_11InteractionE
   fun:_ZNK5genie16KNOHadronization9HadronizeEPKNS_11InteractionE
   fun:_ZNK5genie22KNOPythiaHadronization9HadronizeEPKNS_11InteractionE
   fun:_ZNK5genie26DISHadronicSystemGenerator24AddFragmentationProductsEPNS_10GHepRecordE
   fun:_ZNK5genie26DISHadronicSystemGenerator18ProcessEventRecordEPNS_10GHepRecordE
   fun:_ZNK5genie14EventGenerator18ProcessEventRecordEPNS_10GHepRecordE
   fun:_ZN5genie10GEVGDriver13GenerateEventERK14TLorentzVector
   fun:_ZN5genie10GMCJDriver23GenerateEventKinematicsEv
   fun:_ZN5genie10GMCJDriver17GenerateEvent1TryEv
   fun:_ZN5genie10GMCJDriver13GenerateEventEv
   fun:_Z31GenerateEventsUsingFluxOrTgtMixv
   fun:main
}
{
   <insert a suppression name here>
   Memcheck:Leak
   fun:_vgrZU_libstdcZpZpZa__Znwm
   fun:_Z41__static_initialization_and_destruction_0ii
   obj:/minerva/app/users/perdue/GENIE/support/root/lib/libHist.so
   obj:/minerva/app/users/perdue/GENIE/support/root/lib/libHist.so
   obj:*
   obj:*
   obj:*
   obj:*
}
{
   <insert a suppression name here>
   Memcheck:Leak
   fun:_vgrZU_libstdcZpZpZa__Znam
   fun:_ZN7TString7ClobberEi
   fun:_ZN7TString8StreamerER7TBuffer
   fun:_ZN20TStreamerInfoActions11ReadTStringER7TBufferPvPKNS_14TConfigurationE
   fun:_ZN11TBufferFile13ApplySequenceERKN20TStreamerInfoActions15TActionSequenceEPv
   fun:_ZN11TBufferFile15ReadClassBufferEPK6TClassPvS2_
   fun:_ZN13TStreamerInfo8StreamerER7TBuffer
   fun:_ZN14TDirectoryFile11CloneObjectEPK7TObjectb
   fun:_ZNK6TNamed5CloneEPKc
   fun:_ZNK13TStreamerInfo5CloneEPKc
   fun:_Z24R__GenerateTClassForPairRKSsS0_
   fun:_ZN24TEmulatedCollectionProxy12InitializeExEb
   fun:_ZN24TEmulatedCollectionProxyC2EPKcb
   fun:_ZN17TEmulatedMapProxyC1EPKcb
   fun:_ZN111_GLOBAL__N__minerva_app_users_perdue_GENIE_support_root_io_io_src_TCollectionProxyFactory.cxx_00000000_E1C7F02612GenEmulationEPKcb
   fun:_ZN6TClass4InitEPKcsPKSt9type_infoP16TVirtualIsAProxyPFvPvR16TMemberInspectorES1_S1_iib
   fun:_ZN6TClassC1EPKcsRKSt9type_infoP16TVirtualIsAProxyPFvPvR16TMemberInspectorES1_S1_iib
   fun:_ZN4ROOT11CreateClassEPKcsRKSt9type_infoP16TVirtualIsAProxyPFvPvR16TMemberInspectorES1_S1_ii
   fun:_ZNK4ROOT20TDefaultInitBehavior11CreateClassEPKcsRKSt9type_infoP16TVirtualIsAProxyPFvPvR16TMemberInspectorES2_S2_ii
   fun:_ZN4ROOT17TGenericClassInfo8GetClassEv
   fun:_ZN4ROOT43maplEgeniecLcLEKineVarcOdoublegR_DictionaryEv
   fun:_ZNK5TROOT9LoadClassEPKcb
   fun:_ZN6TClass8GetClassEPKcbb
   fun:_Z15R__FindSTLClassPKcbbS0_
}
{
   <insert a suppression name here>
   Memcheck:Leak
   fun:_vgrZU_libstdcZpZpZa__Znam
   fun:_ZN7TString7ReplaceEiiPKci
   fun:_ZN12TClonesArray8SetClassEPK6TClassi
   fun:_ZN12TClonesArrayC2EPKcib
   fun:_ZN5genie10GHepRecordC2Ev
   fun:_ZN5genie11EventRecordC1Ev
   fun:_ZN5genie16NtpMCEventRecord4InitEv
   fun:_ZN5genie16NtpMCEventRecordC1Ev
   fun:_ZN4ROOT29new_geniecLcLNtpMCEventRecordEPv
   fun:_ZNK6TClass3NewENS_8ENewTypeE
   fun:_ZN14TBranchElement10SetAddressEPv
   fun:_ZN5TTree10BronchExecEPKcS1_Pvbii
   fun:_ZN5TTree6BronchEPKcS1_Pvii
   fun:_ZN5TTree6BranchIN5genie16NtpMCEventRecordEEEP7TBranchPKcS6_PPT_ii
   fun:_ZN5genie9NtpWriter21CreateGHEPEventBranchEv
   fun:_ZN5genie9NtpWriter17CreateEventBranchEv
   fun:_ZN5genie9NtpWriter10InitializeEv
   fun:_Z31GenerateEventsUsingFluxOrTgtMixv
   fun:main
}
{
   <insert a suppression name here>
   Memcheck:Leak
   fun:_vgrZU_libstdcZpZpZa__Znwm
   fun:_Z23GetCollectionReadActionIN20TStreamerInfoActions15VectorPtrLooperEENS0_17TConfiguredActionEP20TVirtualStreamerInfoP16TStreamerElementiji
   fun:_ZN13TStreamerInfo13AddReadActionEiP16TStreamerElement
   fun:_ZN13TStreamerInfo7CompileEv
   fun:_ZN13TStreamerInfo5BuildEv
   fun:_ZNK6TClass15GetStreamerInfoEi
   fun:_ZN13TStreamerInfo5BuildEv
   fun:_ZNK6TClass15GetStreamerInfoEi
   fun:_ZN13TStreamerInfo5BuildEv
   fun:_ZNK6TClass15GetStreamerInfoEi
   fun:_ZN13TStreamerInfo5BuildEv
   fun:_ZN11TBufferFile16WriteClassBufferEPK6TClassPv
   fun:_ZN4TKeyC1EPK7TObjectPKciP10TDirectory
   fun:_ZN5TFile9CreateKeyEP10TDirectoryPK7TObjectPKci
   fun:_ZN14TDirectoryFile12WriteTObjectEPK7TObjectPKcS4_i
   fun:_ZNK7TObject5WriteEPKcii
   fun:_Z13TH1FluxDriverv
   fun:_Z10FluxDriverv
   fun:_Z31GenerateEventsUsingFluxOrTgtMixv
   fun:main
}
{
   <insert a suppression name here>
   Memcheck:Leak
   fun:_vgrZU_libstdcZpZpZa__Znwm
   fun:_ZN13TStreamerInfo13AddReadActionEiP16TStreamerElement
   fun:_ZN13TStreamerInfo7CompileEv
   fun:_ZN13TStreamerInfo5BuildEv
   fun:_ZN11TBufferFile16WriteClassBufferEPK6TClassPv
   fun:_ZN5TAxis8StreamerER7TBuffer
   fun:_ZN11TBufferFile14WriteFastArrayEPvPK6TClassiP15TMemberStreamer
   fun:_ZN13TStreamerInfo14WriteBufferAuxIPPcEEiR7TBufferRKT_iiii
   fun:_ZN20TStreamerInfoActions18GenericWriteActionER7TBufferPvPKNS_14TConfigurationE
   fun:_ZN11TBufferFile13ApplySequenceERKN20TStreamerInfoActions15TActionSequenceEPv
   fun:_ZN11TBufferFile16WriteClassBufferEPK6TClassPv
   fun:_ZN3TH18StreamerER7TBuffer
   fun:_ZN13TStreamerBase11WriteBufferER7TBufferPc
   fun:_ZN13TStreamerInfo14WriteBufferAuxIPPcEEiR7TBufferRKT_iiii
   fun:_ZN20TStreamerInfoActions18GenericWriteActionER7TBufferPvPKNS_14TConfigurationE
   fun:_ZN11TBufferFile13ApplySequenceERKN20TStreamerInfoActions15TActionSequenceEPv
   fun:_ZN11TBufferFile16WriteClassBufferEPK6TClassPv
   fun:_ZN4TKeyC1EPK7TObjectPKciP10TDirectory
   fun:_ZN5TFile9CreateKeyEP10TDirectoryPK7TObjectPKci
   fun:_ZN14TDirectoryFile12WriteTObjectEPK7TObjectPKcS4_i
   fun:_ZNK7TObject5WriteEPKcii
   fun:_Z13TH1FluxDriverv
   fun:_Z10FluxDriverv
   fun:_Z31GenerateEventsUsingFluxOrTgtMixv
}
{
   <insert a suppression name here>
   Memcheck:Leak
   fun:_vgrZU_libstdcZpZpZa__Znwm
   fun:_ZN13TStreamerInfo14AddWriteActionEiP16TStreamerElement
   fun:_ZN13TStreamerInfo7CompileEv
   fun:_ZN13TStreamerInfo5BuildEv
   fun:_ZNK6TClass15GetStreamerInfoEi
   fun:_ZN13TStreamerInfo5BuildEv
   fun:_ZNK6TClass15GetStreamerInfoEi
   fun:_ZN13TStreamerInfo5BuildEv
   fun:_ZN11TBufferFile16WriteClassBufferEPK6TClassPv
   fun:_ZN4TKeyC1EPK7TObjectPKciP10TDirectory
   fun:_ZN5TFile9CreateKeyEP10TDirectoryPK7TObjectPKci
   fun:_ZN14TDirectoryFile12WriteTObjectEPK7TObjectPKcS4_i
   fun:_ZNK7TObject5WriteEPKcii
   fun:_Z13TH1FluxDriverv
   fun:_Z10FluxDriverv
   fun:_Z31GenerateEventsUsingFluxOrTgtMixv
   fun:main
}
{
   <insert a suppression name here>
   Memcheck:Leak
   fun:_vgrZU_libstdcZpZpZa__Znwm
   fun:_ZN13TStreamerInfo14AddWriteActionEiP16TStreamerElement
   fun:_ZN13TStreamerInfo7CompileEv
   fun:_ZN13TStreamerInfo5BuildEv
   fun:_ZN11TBufferFile16WriteClassBufferEPK6TClassPv
   fun:_ZN5TAxis8StreamerER7TBuffer
   fun:_ZN11TBufferFile14WriteFastArrayEPvPK6TClassiP15TMemberStreamer
   fun:_ZN13TStreamerInfo14WriteBufferAuxIPPcEEiR7TBufferRKT_iiii
   fun:_ZN20TStreamerInfoActions18GenericWriteActionER7TBufferPvPKNS_14TConfigurationE
   fun:_ZN11TBufferFile13ApplySequenceERKN20TStreamerInfoActions15TActionSequenceEPv
   fun:_ZN11TBufferFile16WriteClassBufferEPK6TClassPv
   fun:_ZN3TH18StreamerER7TBuffer
   fun:_ZN13TStreamerBase11WriteBufferER7TBufferPc
   fun:_ZN13TStreamerInfo14WriteBufferAuxIPPcEEiR7TBufferRKT_iiii
   fun:_ZN20TStreamerInfoActions18GenericWriteActionER7TBufferPvPKNS_14TConfigurationE
   fun:_ZN11TBufferFile13ApplySequenceERKN20TStreamerInfoActions15TActionSequenceEPv
   fun:_ZN11TBufferFile16WriteClassBufferEPK6TClassPv
   fun:_ZN4TKeyC1EPK7TObjectPKciP10TDirectory
   fun:_ZN5TFile9CreateKeyEP10TDirectoryPK7TObjectPKci
   fun:_ZN14TDirectoryFile12WriteTObjectEPK7TObjectPKcS4_i
   fun:_ZNK7TObject5WriteEPKcii
   fun:_Z13TH1FluxDriverv
   fun:_Z10FluxDriverv
   fun:_Z31GenerateEventsUsingFluxOrTgtMixv
}
{
   <insert a suppression name here>
   Memcheck:Leak
   fun:_vgrZU_libstdcZpZpZa__Znwm
   fun:_Z23GetCollectionReadActionIN20TStreamerInfoActions15VectorPtrLooperEENS0_17TConfiguredActionEP20TVirtualStreamerInfoP16TStreamerElementiji
   fun:_ZN13TStreamerInfo13AddReadActionEiP16TStreamerElement
   fun:_ZN13TStreamerInfo7CompileEv
   fun:_ZN13TStreamerInfo5BuildEv
   fun:_ZNK6TClass15GetStreamerInfoEi
   fun:_ZN13TStreamerInfo5BuildEv
   fun:_ZNK6TClass15GetStreamerInfoEi
   fun:_ZN13TStreamerInfo5BuildEv
   fun:_ZN11TBufferFile16WriteClassBufferEPK6TClassPv
   fun:_ZN4TKeyC1EPK7TObjectPKciP10TDirectory
   fun:_ZN5TFile9CreateKeyEP10TDirectoryPK7TObjectPKci
   fun:_ZN14TDirectoryFile12WriteTObjectEPK7TObjectPKcS4_i
   fun:_ZNK7TObject5WriteEPKcii
   fun:_Z13TH1FluxDriverv
   fun:_Z10FluxDriverv
   fun:_Z31GenerateEventsUsingFluxOrTgtMixv
   fun:main
}
{
   <insert a suppression name here>
   Memcheck:Leak
   fun:_vgrZU_libstdcZpZpZa__Znwm
   fun:_ZN13TStreamerInfo13AddReadActionEiP16TStreamerElement
   fun:_ZN13TStreamerInfo7CompileEv
   fun:_ZN13TStreamerInfo5BuildEv
   fun:_ZNK6TClass15GetStreamerInfoEi
   fun:_ZN13TStreamerInfo5BuildEv
   fun:_ZNK6TClass15GetStreamerInfoEi
   fun:_ZN13TStreamerInfo5BuildEv
   fun:_ZN11TBufferFile16WriteClassBufferEPK6TClassPv
   fun:_ZN4TKeyC1EPK7TObjectPKciP10TDirectory
   fun:_ZN5TFile9CreateKeyEP10TDirectoryPK7TObjectPKci
   fun:_ZN14TDirectoryFile12WriteTObjectEPK7TObjectPKcS4_i
   fun:_ZNK7TObject5WriteEPKcii
   fun:_Z13TH1FluxDriverv
   fun:_Z10FluxDriverv
   fun:_Z31GenerateEventsUsingFluxOrTgtMixv
   fun:main
}
{
   <insert a suppression name here>
   Memcheck:Leak
   fun:_vgrZU_libstdcZpZpZa__Znwm
   fun:_ZN13TStreamerInfo13AddReadActionEiP16TStreamerElement
   fun:_ZN13TStreamerInfo7CompileEv
   fun:_ZN13TStreamerInfo5BuildEv
   fun:_ZNK6TClass15GetStreamerInfoEi
   fun:_ZN13TStreamerInfo5BuildEv
   fun:_ZNK6TClass15GetStreamerInfoEi
   fun:_ZN13TStreamerInfo5BuildEv
   fun:_ZNK6TClass15GetStreamerInfoEi
   fun:_ZN13TStreamerInfo5BuildEv
   fun:_ZN11TBufferFile16WriteClassBufferEPK6TClassPv
   fun:_ZN4TKeyC1EPK7TObjectPKciP10TDirectory
   fun:_ZN5TFile9CreateKeyEP10TDirectoryPK7TObjectPKci
   fun:_ZN14TDirectoryFile12WriteTObjectEPK7TObjectPKcS4_i
   fun:_ZNK7TObject5WriteEPKcii
   fun:_Z13TH1FluxDriverv
   fun:_Z10FluxDriverv
   fun:_Z31GenerateEventsUsingFluxOrTgtMixv
   fun:main
}
{
   <insert a suppression name here>
   Memcheck:Leak
   fun:_vgrZU_libstdcZpZpZa__Znwm
   fun:_Z23GetCollectionReadActionIN20TStreamerInfoActions15VectorPtrLooperEENS0_17TConfiguredActionEP20TVirtualStreamerInfoP16TStreamerElementiji
   fun:_ZN13TStreamerInfo13AddReadActionEiP16TStreamerElement
   fun:_ZN13TStreamerInfo7CompileEv
   fun:_ZN13TStreamerInfo5BuildEv
   fun:_ZN11TBufferFile16WriteClassBufferEPK6TClassPv
   fun:_ZN5TAxis8StreamerER7TBuffer
   fun:_ZN11TBufferFile14WriteFastArrayEPvPK6TClassiP15TMemberStreamer
   fun:_ZN13TStreamerInfo14WriteBufferAuxIPPcEEiR7TBufferRKT_iiii
   fun:_ZN20TStreamerInfoActions18GenericWriteActionER7TBufferPvPKNS_14TConfigurationE
   fun:_ZN11TBufferFile13ApplySequenceERKN20TStreamerInfoActions15TActionSequenceEPv
   fun:_ZN11TBufferFile16WriteClassBufferEPK6TClassPv
   fun:_ZN3TH18StreamerER7TBuffer
   fun:_ZN13TStreamerBase11WriteBufferER7TBufferPc
   fun:_ZN13TStreamerInfo14WriteBufferAuxIPPcEEiR7TBufferRKT_iiii
   fun:_ZN20TStreamerInfoActions18GenericWriteActionER7TBufferPvPKNS_14TConfigurationE
   fun:_ZN11TBufferFile13ApplySequenceERKN20TStreamerInfoActions15TActionSequenceEPv
   fun:_ZN11TBufferFile16WriteClassBufferEPK6TClassPv
   fun:_ZN4TKeyC1EPK7TObjectPKciP10TDirectory
   fun:_ZN5TFile9CreateKeyEP10TDirectoryPK7TObjectPKci
   fun:_ZN14TDirectoryFile12WriteTObjectEPK7TObjectPKcS4_i
   fun:_ZNK7TObject5WriteEPKcii
   fun:_Z13TH1FluxDriverv
   fun:_Z10FluxDriverv
}
{
   <insert a suppression name here>
   Memcheck:Leak
   fun:_vgrZU_libcZdsoZa_calloc
   fun:_dlerror_run
   fun:dlopen@@GLIBC_2.2.5
   fun:G__dlopen
   fun:G__shl_load
   fun:G__loadfile
   fun:G__loadsystemfile
   fun:_ZN5TCint4LoadEPKcb
   fun:_ZN7TSystem4LoadEPKcS1_b
   fun:_ZN5TROOT9LoadClassEPKcS1_b
   fun:_ZN18TVirtualTreePlayer10TreePlayerEP5TTree
   fun:_ZN5TTree9GetPlayerEv
   fun:_ZN5TTree4DrawEPKcS1_S1_xx
   fun:_ZN5genie6Spline12LoadFromTreeEP5TTreeSsSs
   fun:_ZN5genie6SplineC1EP5TTreeSsSs
   fun:_ZN5genie14INukeHadroData17LoadCrossSectionsEv
   fun:_ZN5genie14INukeHadroDataC1Ev
   fun:_ZN5genie14INukeHadroData8InstanceEv
   fun:_ZN5genie11HAIntranuke10LoadConfigEv
   fun:_ZN5genie9Intranuke9ConfigureESs
   fun:_ZNK5genie10AlgFactory20InstantiateAlgorithmESsSs
   fun:_ZN5genie10AlgFactory12GetAlgorithmESsSs
   fun:_ZNK5genie9Algorithm6SubAlgERKSs
   fun:_ZN5genie17HadronTransporter10LoadConfigEv
}
{
   <insert a suppression name here>
   Memcheck:Leak
   fun:_vgrZU_libstdcZpZpZa__Znam
   fun:_ZN7TString4InitEii
   fun:_ZN7TStringC1EPKc
   fun:_ZN6TNamedC2EPKcS1_
   fun:_ZN5genie15NtpMCTreeHeaderC1Ev
   fun:_ZN5genie9NtpWriter16CreateTreeHeaderEv
   fun:_ZN5genie9NtpWriter10InitializeEv
   fun:_Z31GenerateEventsUsingFluxOrTgtMixv
   fun:main
}
{
   <insert a suppression name here>
   Memcheck:Leak
   fun:_vgrZU_libstdcZpZpZa__Znwm
   fun:_ZN11TTreePlayerC1Ev
   fun:_ZN4ROOT15new_TTreePlayerEPv
   fun:_ZNK6TClass3NewENS_8ENewTypeE
   fun:_ZN18TVirtualTreePlayer10TreePlayerEP5TTree
   fun:_ZN5TTree9GetPlayerEv
   fun:_ZN5TTree4DrawEPKcS1_S1_xx
   fun:_ZN5genie6Spline12LoadFromTreeEP5TTreeSsSs
   fun:_ZN5genie6Spline14LoadFromNtupleEP8TNtupleDSsSs
   fun:_ZN5genie6Spline17LoadFromAsciiFileESs
   fun:_ZN5genie6SplineC1ESsSsSsb
   fun:_ZN5genie18ReinSeghalRESPXSec10LoadConfigEv
   fun:_ZN5genie18ReinSeghalRESPXSec9ConfigureESs
   fun:_ZNK5genie10AlgFactory20InstantiateAlgorithmESsSs
   fun:_ZN5genie10AlgFactory12GetAlgorithmESsSs
   fun:_ZNK5genie9Algorithm6SubAlgERKSs
   fun:_ZN5genie14EventGenerator10LoadConfigEv
   fun:_ZN5genie14EventGenerator9ConfigureESs
   fun:_ZNK5genie10AlgFactory20InstantiateAlgorithmESsSs
   fun:_ZN5genie10AlgFactory12GetAlgorithmESsSs
   fun:_ZNK5genie9Algorithm6SubAlgERKSs
   fun:_ZN5genie27EventGeneratorListAssembler13LoadGeneratorEi
   fun:_ZN5genie27EventGeneratorListAssembler21AssembleGeneratorListEv
   fun:_ZN5genie10GEVGDriver18BuildGeneratorListEv
}
{
   <insert a suppression name here>
   Memcheck:Leak
   fun:_vgrZU_libstdcZpZpZa__Znwm
   fun:_ZN11TTreePlayerC1Ev
   fun:_ZN4ROOT15new_TTreePlayerEPv
   fun:_ZNK6TClass3NewENS_8ENewTypeE
   fun:_ZN18TVirtualTreePlayer10TreePlayerEP5TTree
   fun:_ZN5TTree9GetPlayerEv
   fun:_ZN5TTree4DrawEPKcS1_S1_xx
   fun:_ZN5genie6Spline12LoadFromTreeEP5TTreeSsSs
   fun:_ZN5genie6Spline14LoadFromNtupleEP8TNtupleDSsSs
   fun:_ZN5genie6Spline17LoadFromAsciiFileESs
   fun:_ZN5genie6SplineC1ESsSsSsb
   fun:_ZN5genie18ReinSeghalRESPXSec10LoadConfigEv
   fun:_ZN5genie18ReinSeghalRESPXSec9ConfigureESs
   fun:_ZNK5genie10AlgFactory20InstantiateAlgorithmESsSs
   fun:_ZN5genie10AlgFactory12GetAlgorithmESsSs
   fun:_ZNK5genie9Algorithm6SubAlgERKSs
   fun:_ZN5genie14EventGenerator10LoadConfigEv
   fun:_ZN5genie14EventGenerator9ConfigureESs
   fun:_ZNK5genie10AlgFactory20InstantiateAlgorithmESsSs
   fun:_ZN5genie10AlgFactory12GetAlgorithmESsSs
   fun:_ZNK5genie9Algorithm6SubAlgERKSs
   fun:_ZN5genie27EventGeneratorListAssembler13LoadGeneratorEi
   fun:_ZN5genie27EventGeneratorListAssembler21AssembleGeneratorListEv
   fun:_ZN5genie10GEVGDriver18BuildGeneratorListEv
}
{
   <insert a suppression name here>
   Memcheck:Leak
   fun:_vgrZU_libstdcZpZpZa__Znwm
   fun:_ZN6TClass8GetIdMapEv
   fun:_ZN6TClass8AddClassEPS_
   fun:_ZN6TClass4InitEPKcsPKSt9type_infoP16TVirtualIsAProxyPFvPvR16TMemberInspectorES1_S1_iib
   fun:_ZN6TClassC1EPKcsRKSt9type_infoP16TVirtualIsAProxyPFvPvR16TMemberInspectorES1_S1_iib
   fun:_ZN4ROOT11CreateClassEPKcsRKSt9type_infoP16TVirtualIsAProxyPFvPvR16TMemberInspectorES1_S1_ii
   fun:_ZNK4ROOT20TDefaultInitBehavior11CreateClassEPKcsRKSt9type_infoP16TVirtualIsAProxyPFvPvR16TMemberInspectorES2_S2_ii
   fun:_ZN4ROOT17TGenericClassInfo8GetClassEv
   fun:_ZN11TMCParticle10DictionaryEv
   fun:_ZNK5TROOT9LoadClassEPKcb
   fun:_ZN6TClass8GetClassEPKcbb
   fun:_ZN12TClonesArray8SetClassEPKci
   fun:_ZN12TClonesArrayC1EPKcib
   fun:_ZN8TPythia6C1Ev
   fun:_ZN8TPythia68InstanceEv
   fun:_ZN5genie9RandomGen7SetSeedEl
   fun:_ZN5genie9RandomGen20InitRandomGeneratorsEl
   fun:_ZN5genie9RandomGenC1Ev
   fun:_ZN5genie9RandomGen8InstanceEv
   fun:_ZN5genie5utils8app_init7RandGenEl
   fun:_Z10Initializev
   fun:main
}
{
   <insert a suppression name here>
   Memcheck:Leak
   fun:_vgrZU_libstdcZpZpZa__Znwm
   fun:_ZN4ROOT17TGenericClassInfo11SetStreamerEPFvR7TBufferPvE
   fun:_Z41__static_initialization_and_destruction_0ii
   obj:/minerva/app/users/perdue/GENIE/support/root/lib/libCore.so
   obj:/minerva/app/users/perdue/GENIE/support/root/lib/libCore.so
   obj:*
   obj:*
   obj:*
   obj:*
}
{
   <insert a suppression name here>
   Memcheck:Leak
   fun:_vgrZU_libstdcZpZpZa__Znwm
   fun:G__scratch_all
   fun:G__main
   fun:G__init_cint
   fun:_ZN5TCint8ResetAllEv
   fun:_ZN5TCintC1EPKcS1_
   fun:_ZN5TROOTC1EPKcS1_PPFvvE
   fun:_ZN4ROOT7GetROOTEv
   fun:_Z41__static_initialization_and_destruction_0ii
   obj:/minerva/app/users/perdue/GENIE/support/root/lib/libCore.so
   obj:/minerva/app/users/perdue/GENIE/support/root/lib/libCore.so
   obj:*
   obj:*
   obj:*
   obj:*
   obj:*
   obj:*
   fun:_vgrZU_libcZdsoZa_free
   fun:G__close_inputfiles
   fun:G__scratch_upto_work
   fun:G__main
   fun:G__init_cint
   fun:_ZN5TCint8ResetAllEv
   fun:_ZN5TCintC1EPKcS1_
}
{
   <insert a suppression name here>
   Memcheck:Leak
   fun:_vgrZU_libstdcZpZpZa__Znwm
   fun:G__scratch_all
   fun:G__main
   fun:G__init_cint
   fun:_ZN5TCint8ResetAllEv
   fun:_ZN5TCintC1EPKcS1_
   fun:_ZN5TROOTC1EPKcS1_PPFvvE
   fun:_ZN4ROOT7GetROOTEv
   fun:_Z41__static_initialization_and_destruction_0ii
   obj:/minerva/app/users/perdue/GENIE/support/root/lib/libCore.so
   obj:/minerva/app/users/perdue/GENIE/support/root/lib/libCore.so
   obj:*
   obj:*
   obj:*
   obj:*
}
{
   <insert a suppression name here>
   Memcheck:Leak
   fun:_vgrZU_libcZdsoZa_malloc
   fun:G__add_ipath
   fun:_ZN5TCint14AddIncludePathEPKc
   fun:_ZN5TCintC1EPKcS1_
   fun:_ZN5TROOTC1EPKcS1_PPFvvE
   fun:_ZN4ROOT7GetROOTEv
   fun:_Z41__static_initialization_and_destruction_0ii
   obj:/minerva/app/users/perdue/GENIE/support/root/lib/libCore.so
   obj:/minerva/app/users/perdue/GENIE/support/root/lib/libCore.so
   obj:*
   obj:*
   obj:*
   obj:*
}
{
   <insert a suppression name here>
   Memcheck:Leak
   fun:_vgrZU_libstdcZpZpZa__Znwm
   fun:_ZN5TList10NewOptLinkEP7TObjectPKcP8TObjLink
   fun:_ZN5TList7AddLastEP7TObjectPKc
   fun:_ZN5TROOTC1EPKcS1_PPFvvE
   fun:_ZN4ROOT7GetROOTEv
   fun:_Z41__static_initialization_and_destruction_0ii
   obj:/minerva/app/users/perdue/GENIE/support/root/lib/libCore.so
   obj:/minerva/app/users/perdue/GENIE/support/root/lib/libCore.so
   obj:*
   obj:*
   obj:*
   obj:*
}
{
   <insert a suppression name here>
   Memcheck:Leak
   fun:_vgrZU_libstdcZpZpZa__Znwm
   fun:_ZN11TClassTableC1Ev
   fun:_ZN11TClassTable3AddEPKcsRKSt9type_infoPFvvEi
   fun:_ZNK4ROOT20TDefaultInitBehavior8RegisterEPKcsRKSt9type_infoPFvvEi
   fun:_ZN4ROOT17TGenericClassInfoC1EPKciS2_iPKNS_13TInitBehaviorEPFvvEi
   fun:_ZN10TClassEdit4ROOT20GenerateInitInstanceEv
   fun:_Z41__static_initialization_and_destruction_0ii
   fun:_GLOBAL__I__ZN10TClassEdit4ROOT54coredImetautilsdIsrcdIG__MetaUtilsInitFunctionKeeper55E
   obj:/minerva/app/users/perdue/GENIE/support/root/lib/libCore.so
   obj:/minerva/app/users/perdue/GENIE/support/root/lib/libCore.so
   obj:*
   obj:*
   obj:*
   obj:*
   obj:*
   obj:*
   fun:_vgrZU_libstdcZpZpZa__Znwm
   fun:_ZN8TStorage11ObjectAllocEm
   fun:_ZN4TMapC1Eii
   fun:_ZN11TClassTableC1Ev
   fun:_ZN11TClassTable3AddEPKcsRKSt9type_infoPFvvEi
   fun:_ZNK4ROOT20TDefaultInitBehavior8RegisterEPKcsRKSt9type_infoPFvvEi
   fun:_ZN4ROOT17TGenericClassInfoC1EPKciS2_iPKNS_13TInitBehaviorEPFvvEi
   fun:_ZN10TClassEdit4ROOT20GenerateInitInstanceEv
}
{
   <insert a suppression name here>
   Memcheck:Leak
   fun:_vgrZU_libcZdsoZa_realloc
   fun:G__add_ipath
   fun:_ZN5TCint14AddIncludePathEPKc
   fun:_ZN5TCintC1EPKcS1_
   fun:_ZN5TROOTC1EPKcS1_PPFvvE
   fun:_ZN4ROOT7GetROOTEv
   fun:_Z41__static_initialization_and_destruction_0ii
   obj:/minerva/app/users/perdue/GENIE/support/root/lib/libCore.so
   obj:/minerva/app/users/perdue/GENIE/support/root/lib/libCore.so
   obj:*
   obj:*
   obj:*
   obj:*
}
{
   <insert a suppression name here>
   Memcheck:Leak
   fun:_vgrZU_libstdcZpZpZa__Znam
   fun:_ZN7TSystem7DirNameEPKc
   fun:_Z10SetRootSysv
   fun:_ZN11TUnixSystem4InitEv
   fun:_ZN5TROOT10InitSystemEv
   fun:_ZN5TROOTC1EPKcS1_PPFvvE
   fun:_ZN4ROOT7GetROOTEv
   fun:_Z41__static_initialization_and_destruction_0ii
   obj:/minerva/app/users/perdue/GENIE/support/root/lib/libCore.so
   obj:/minerva/app/users/perdue/GENIE/support/root/lib/libCore.so
   obj:*
   obj:*
   obj:*
   obj:*
}
{
   <insert a suppression name here>
   Memcheck:Leak
   fun:_vgrZU_libcZdsoZa_malloc
   fun:xmlStrndup
   fun:xmlNewCharEncodingHandler
   fun:xmlInitCharEncodingHandlers
   fun:xmlInitParser
   fun:xmlSAXParseFileWithData
   fun:_ZN5genie9Messenger24SetPrioritiesFromXmlFileESs
   fun:_ZN5genie9Messenger9ConfigureEv
   fun:_ZN5genie9Messenger8InstanceEv
   fun:_Z18GetCommandLineArgsiPPc
   fun:main
}
{
   <insert a suppression name here>
   Memcheck:Leak
   fun:_vgrZU_libstdcZpZpZa__Znwm
   fun:_ZNSt11_Deque_baseI16G__IncSetupStackSaIS0_EE17_M_initialize_mapEm
   fun:G__stack_instance
   fun:_ZN16G__IncSetupStack4pushEv
   fun:G__resetplocal
   fun:_Z20G__cpp_setup_global0v
   fun:G__cpp_setup_globalG__TextInput
   fun:G__cpp_setupG__TextInput
   fun:G__call_setup_funcs
   fun:G__main
   fun:G__init_cint
   fun:_ZN5TCint8ResetAllEv
   fun:_ZN5TCintC1EPKcS1_
   fun:_ZN5TROOTC1EPKcS1_PPFvvE
   fun:_ZN4ROOT7GetROOTEv
   fun:_Z41__static_initialization_and_destruction_0ii
   obj:/minerva/app/users/perdue/GENIE/support/root/lib/libCore.so
   obj:/minerva/app/users/perdue/GENIE/support/root/lib/libCore.so
   obj:*
   obj:*
   obj:*
   obj:*
   obj:*
   obj:*
}
{
   <insert a suppression name here>
   Memcheck:Leak
   fun:_vgrZU_libcZdsoZa_malloc
   fun:_dl_new_object
   fun:_dl_map_object_from_fd
   fun:_dl_map_object
   fun:dl_open_worker
   fun:_dl_catch_error
   fun:_dl_open
   fun:dlopen_doit
   fun:_dl_catch_error
   fun:_dlerror_run
   fun:dlopen@@GLIBC_2.2.5
   fun:G__dlopen
   fun:G__shl_load
   fun:G__loadfile
   fun:G__loadsystemfile
   fun:_ZN5TCint4LoadEPKcb
   fun:_ZN7TSystem4LoadEPKcS1_b
   fun:_ZN5TROOT9LoadClassEPKcS1_b
   fun:_ZN18TVirtualTreePlayer10TreePlayerEP5TTree
   fun:_ZN5TTree9GetPlayerEv
   fun:_ZN5TTree4DrawEPKcS1_S1_xx
   fun:_ZN5genie6Spline12LoadFromTreeEP5TTreeSsSs
   fun:_ZN5genie6SplineC1EP5TTreeSsSs
   fun:_ZN5genie14INukeHadroData17LoadCrossSectionsEv
}
{
   <insert a suppression name here>
   Memcheck:Leak
   fun:_vgrZU_libcZdsoZa_malloc
   fun:expand_dynamic_string_token
   fun:_dl_map_object
   fun:dl_open_worker
   fun:_dl_catch_error
   fun:_dl_open
   fun:dlopen_doit
   fun:_dl_catch_error
   fun:_dlerror_run
   fun:dlopen@@GLIBC_2.2.5
   fun:G__dlopen
   fun:G__shl_load
   fun:G__loadfile
   fun:G__loadsystemfile
   fun:_ZN5TCint4LoadEPKcb
   fun:_ZN7TSystem4LoadEPKcS1_b
   fun:_ZN5TROOT9LoadClassEPKcS1_b
   fun:_ZN18TVirtualTreePlayer10TreePlayerEP5TTree
   fun:_ZN5TTree9GetPlayerEv
   fun:_ZN5TTree4DrawEPKcS1_S1_xx
   fun:_ZN5genie6Spline12LoadFromTreeEP5TTreeSsSs
   fun:_ZN5genie6SplineC1EP5TTreeSsSs
   fun:_ZN5genie14INukeHadroData17LoadCrossSectionsEv
   fun:_ZN5genie14INukeHadroDataC1Ev
}
{
   <insert a suppression name here>
   Memcheck:Leak
   fun:_vgrZU_libcZdsoZa_malloc
   fun:xmlNewMutex
   fun:xmlInitGlobals
   fun:xmlInitParser
   fun:xmlSAXParseFileWithData
   fun:_ZN5genie9Messenger24SetPrioritiesFromXmlFileESs
   fun:_ZN5genie9Messenger9ConfigureEv
   fun:_ZN5genie9Messenger8InstanceEv
   fun:_Z18GetCommandLineArgsiPPc
   fun:main
}
{
   <insert a suppression name here>
   Memcheck:Leak
   fun:_vgrZU_libstdcZpZpZa__Znwm
   fun:G__stack_instance
   fun:_ZN16G__IncSetupStack4pushEv
   fun:G__resetplocal
   fun:_Z20G__cpp_setup_global0v
   fun:G__cpp_setup_globalG__TextInput
   fun:G__cpp_setupG__TextInput
   fun:G__call_setup_funcs
   fun:G__main
   fun:G__init_cint
   fun:_ZN5TCint8ResetAllEv
   fun:_ZN5TCintC1EPKcS1_
   fun:_ZN5TROOTC1EPKcS1_PPFvvE
   fun:_ZN4ROOT7GetROOTEv
   fun:_Z41__static_initialization_and_destruction_0ii
   obj:/minerva/app/users/perdue/GENIE/support/root/lib/libCore.so
   obj:/minerva/app/users/perdue/GENIE/support/root/lib/libCore.so
   obj:*
   obj:*
   obj:*
   obj:*
   obj:*
   obj:*
   fun:_vgrZU_libstdcZpZpZa__Znwm
}
{
   <insert a suppression name here>
   Memcheck:Leak
   fun:_vgrZU_libstdcZpZpZa__Znwm
   fun:_ZNK5genie16KNOHadronization19GenerateHadronCodesEiid
   fun:_ZNK5genie16KNOHadronization15SelectParticlesEPKNS_11InteractionE
   fun:_ZNK5genie16KNOHadronization9HadronizeEPKNS_11InteractionE
   fun:_ZNK5genie22KNOPythiaHadronization9HadronizeEPKNS_11InteractionE
   fun:_ZNK5genie26DISHadronicSystemGenerator24AddFragmentationProductsEPNS_10GHepRecordE
   fun:_ZNK5genie26DISHadronicSystemGenerator18ProcessEventRecordEPNS_10GHepRecordE
   fun:_ZNK5genie14EventGenerator18ProcessEventRecordEPNS_10GHepRecordE
   fun:_ZN5genie10GEVGDriver13GenerateEventERK14TLorentzVector
   fun:_ZN5genie10GMCJDriver23GenerateEventKinematicsEv
   fun:_ZN5genie10GMCJDriver17GenerateEvent1TryEv
   fun:_ZN5genie10GMCJDriver13GenerateEventEv
   fun:_Z31GenerateEventsUsingFluxOrTgtMixv
   fun:main
}
{
   <insert a suppression name here>
   Memcheck:Leak
   fun:_vgrZU_libstdcZpZpZa__Znwm
   fun:_ZN4ROOT20TCollectionProxyInfo7EnvironISt17_Rb_tree_iteratorISt4pairIKN5genie8EKineVarEdEEE6CreateEv
   fun:_ZN19TGenCollectionProxy9PushProxyEPv
   fun:_ZN19TCollectionStreamer8StreamerER7TBufferPviP6TClass
   fun:_ZN11TBufferFile14WriteFastArrayEPvPK6TClassiP15TMemberStreamer
   fun:_ZN13TStreamerInfo14WriteBufferAuxIPPcEEiR7TBufferRKT_iiii
   fun:_ZN20TStreamerInfoActions18GenericWriteActionER7TBufferPvPKNS_14TConfigurationE
   fun:_ZN11TBufferFile13ApplySequenceERKN20TStreamerInfoActions15TActionSequenceEPv
   fun:_ZN11TBufferFile16WriteClassBufferEPK6TClassPv
   fun:_ZN5genie10Kinematics8StreamerER7TBuffer
   fun:_ZN11TBufferFile16WriteObjectClassEPKvPK6TClass
   fun:_ZN11TBufferFile14WriteObjectAnyEPKvPK6TClass
   fun:_ZlsIN5genie10KinematicsEER7TBufferS3_PKT_
   fun:_ZN5genie11Interaction8StreamerER7TBuffer
   fun:_ZN11TBufferFile16WriteObjectClassEPKvPK6TClass
   fun:_ZN11TBufferFile14WriteObjectAnyEPKvPK6TClass
   fun:_ZN11TBufferFile14WriteFastArrayEPPvPK6TClassibP15TMemberStreamer
   fun:_ZN13TStreamerInfo14WriteBufferAuxIPPcEEiR7TBufferRKT_iiii
   fun:_ZN20TStreamerInfoActions18GenericWriteActionER7TBufferPvPKNS_14TConfigurationE
   fun:_ZN11TBufferFile13ApplySequenceERKN20TStreamerInfoActions15TActionSequenceEPv
   fun:_ZN11TBufferFile16WriteClassBufferEPK6TClassPv
   fun:_ZN5genie10GHepRecord8StreamerER7TBuffer
   fun:_ZN5genie11EventRecord8StreamerER7TBuffer
   fun:_ZN11TBufferFile16WriteObjectClassEPKvPK6TClass
}
{
   <insert a suppression name here>
   Memcheck:Leak
   fun:_vgrZU_libstdcZpZpZa__Znwm
   fun:_ZNSt6vectorISt4pairIiiESaIS1_EE13_M_insert_auxEN9__gnu_cxx17__normal_iteratorIPS1_S3_EERKS1_
   fun:_ZNK4ROOT11TSchemaRule14ProcessVersionERK7TString
   fun:_ZN4ROOT11TSchemaRule10SetVersionERK7TString
   fun:_ZN4ROOT17TGenericClassInfo13CreateRuleSetERSt6vectorINS_13TSchemaHelperESaIS2_EEb
   fun:_ZN4ROOT17TGenericClassInfo8GetClassEv
   fun:_ZN5TTree5ClassEv
   fun:_ZN4TKeyC1EPK7TObjectPKciP10TDirectory
   fun:_ZN5TFile9CreateKeyEP10TDirectoryPK7TObjectPKci
   fun:_ZN14TDirectoryFile12WriteTObjectEPK7TObjectPKcS4_i
   fun:_ZNK7TObject5WriteEPKcii
   fun:_ZN14TDirectoryFile5WriteEPKcii
   fun:_ZN5TFile5WriteEPKcii
   fun:_ZN5genie9NtpWriter4SaveEv
   fun:_Z31GenerateEventsUsingFluxOrTgtMixv
   fun:main
}
{
   <insert a suppression name here>
   Memcheck:Leak
   fun:_vgrZU_libstdcZpZpZa__Znwm
   fun:G__tagtable_setup
   fun:G__cpp_setup_tagtableManualBase4
   fun:G__cpp_setupManualBase4
   fun:G__call_setup_funcs
   fun:_ZN28G__cpp_setup_initManualBase4C1Ev
   fun:_Z41__static_initialization_and_destruction_0ii
   fun:_GLOBAL__I_G__set_cpp_environmentManualBase4
   obj:/minerva/app/users/perdue/GENIE/support/root/lib/libCore.so
   obj:/minerva/app/users/perdue/GENIE/support/root/lib/libCore.so
   obj:*
   obj:*
   obj:*
   obj:*
}
{
   <insert a suppression name here>
   Memcheck:Leak
   fun:_vgrZU_libstdcZpZpZa__Znam
   fun:_ZN5TCint8TypeNameEPKc
   fun:_Z15R__FindSTLClassPKcbbS0_
   fun:_ZN6TClass8GetClassEPKcbb
   fun:_ZN14TBuildRealData7InspectEP6TClassPKcS3_PKv
   fun:_ZN5genie10Kinematics11ShowMembersER16TMemberInspector
   fun:_ZNK6TClass15CallShowMembersEPvR16TMemberInspectori
   fun:_ZN6TClass13BuildRealDataEPvb
   fun:_ZN13TStreamerInfo5BuildEv
   fun:_ZNK6TClass15GetStreamerInfoEi
   fun:_ZN13TStreamerInfo14ForceWriteInfoEP5TFileb
   fun:_ZN13TStreamerInfo14ForceWriteInfoEP5TFileb
   fun:_ZN13TStreamerInfo14ForceWriteInfoEP5TFileb
   fun:_ZN13TStreamerInfo14ForceWriteInfoEP5TFileb
   fun:_ZN5TTree17BuildStreamerInfoEP6TClassPvb
   fun:_ZN5TTree10BronchExecEPKcS1_Pvbii
   fun:_ZN5TTree6BronchEPKcS1_Pvii
   fun:_ZN5TTree6BranchIN5genie16NtpMCEventRecordEEEP7TBranchPKcS6_PPT_ii
   fun:_ZN5genie9NtpWriter21CreateGHEPEventBranchEv
   fun:_ZN5genie9NtpWriter17CreateEventBranchEv
   fun:_ZN5genie9NtpWriter10InitializeEv
   fun:_Z31GenerateEventsUsingFluxOrTgtMixv
   fun:main
}
{
   <insert a suppression name here>
   Memcheck:Leak
   fun:_vgrZU_libcZdsoZa_malloc
   fun:xmlNewRMutex
   obj:/usr/lib64/libxml2.so.2.6.26
   fun:xmlDictCreate
   fun:xmlInitParserCtxt
   fun:xmlNewParserCtxt
   fun:xmlCreateURLParserCtxt
   fun:xmlSAXParseFileWithData
   fun:_ZN5genie9Messenger24SetPrioritiesFromXmlFileESs
   fun:_ZN5genie9Messenger9ConfigureEv
   fun:_ZN5genie9Messenger8InstanceEv
   fun:_Z18GetCommandLineArgsiPPc
   fun:main
}
{
   <insert a suppression name here>
   Memcheck:Leak
   fun:_vgrZU_libstdcZpZpZa__Znwm
   fun:_Z23GetCollectionReadActionIN20TStreamerInfoActions15VectorPtrLooperEENS0_17TConfiguredActionEP20TVirtualStreamerInfoP16TStreamerElementiji
   fun:_ZN13TStreamerInfo13AddReadActionEiP16TStreamerElement
   fun:_ZN13TStreamerInfo7CompileEv
   fun:_ZN13TStreamerInfo5BuildEv
   fun:_ZNK6TClass15GetStreamerInfoEi
   fun:_ZN13TStreamerInfo14ForceWriteInfoEP5TFileb
   fun:_ZN13TStreamerInfo14ForceWriteInfoEP5TFileb
   fun:_ZN13TStreamerInfo14ForceWriteInfoEP5TFileb
   fun:_ZN13TStreamerInfo14ForceWriteInfoEP5TFileb
   fun:_ZN5TTree17BuildStreamerInfoEP6TClassPvb
   fun:_ZN5TTree10BronchExecEPKcS1_Pvbii
   fun:_ZN5TTree6BronchEPKcS1_Pvii
   fun:_ZN5TTree6BranchIN5genie16NtpMCEventRecordEEEP7TBranchPKcS6_PPT_ii
   fun:_ZN5genie9NtpWriter21CreateGHEPEventBranchEv
   fun:_ZN5genie9NtpWriter17CreateEventBranchEv
   fun:_ZN5genie9NtpWriter10InitializeEv
   fun:_Z31GenerateEventsUsingFluxOrTgtMixv
   fun:main
}
{
   <insert a suppression name here>
   Memcheck:Leak
   fun:_vgrZU_libstdcZpZpZa__Znwm
   fun:_ZN4ROOT25GenerateInitInstanceLocalEPKSs
   fun:_Z41__static_initialization_and_destruction_0ii
   obj:/minerva/app/users/perdue/GENIE/support/root/lib/libCore.so
   obj:/minerva/app/users/perdue/GENIE/support/root/lib/libCore.so
}
{
   <insert a suppression name here>
   Memcheck:Leak
   fun:_vgrZU_libstdcZpZpZa__Znwm
   fun:_ZN4ROOT25GenerateInitInstanceLocalEPKSt4pairIKiiE
   fun:_Z41__static_initialization_and_destruction_0ii
   obj:/minerva/app/users/perdue/GENIE/support/root/lib/libCore.so
   obj:/minerva/app/users/perdue/GENIE/support/root/lib/libCore.so
   obj:*
   obj:*
   obj:*
   obj:*
   obj:*
   obj:*
   fun:_vgrZU_libstdcZpZpZa__Znwm
   fun:_ZNSs4_Rep9_S_createEmmRKSaIcE
   fun:_ZNSs4_Rep8_M_cloneERKSaIcEm
   fun:_ZNSs7reserveEm
   fun:_ZN10TClassEdit9CleanTypeEPKciPS1_
   fun:_ZN10TClassEdit8GetSplitEPKcRSt6vectorISsSaISsEERiNS_8EModTypeE
   fun:_ZN10TClassEdit10TSplitTypeC1EPKcNS_8EModTypeE
   fun:_ZN11TClassTable3AddEPKcsRKSt9type_infoPFvvEi
   fun:_ZNK4ROOT20TDefaultInitBehavior8RegisterEPKcsRKSt9type_infoPFvvEi
   fun:_ZN4ROOT17TGenericClassInfoC1EPKcS2_iRKSt9type_infoPKNS_13TInitBehaviorEPFvPvR16TMemberInspectorEPFvvEP16TVirtualIsAProxyii
   fun:_ZN4ROOT25GenerateInitInstanceLocalEPKSt4pairIKiiE
   fun:_Z41__static_initialization_and_destruction_0ii
   obj:/minerva/app/users/perdue/GENIE/support/root/lib/libCore.so
}
{
   <insert a suppression name here>
   Memcheck:Leak
   fun:_vgrZU_libstdcZpZpZa__Znwm
   fun:_ZN4ROOT25GenerateInitInstanceLocalEPK9TClassRef
   fun:_Z41__static_initialization_and_destruction_0ii
   obj:/minerva/app/users/perdue/GENIE/support/root/lib/libCore.so
   obj:/minerva/app/users/perdue/GENIE/support/root/lib/libCore.so
   obj:*
   obj:*
   obj:*
   obj:*
   obj:*
   obj:*
   fun:_vgrZU_libstdcZpZpZa__Znwm
   fun:_ZNSs4_Rep9_S_createEmmRKSaIcE
   fun:_ZNSs4_Rep8_M_cloneERKSaIcEm
   fun:_ZNSs7reserveEm
   fun:_ZN10TClassEdit9CleanTypeEPKciPS1_
   fun:_ZN10TClassEdit8GetSplitEPKcRSt6vectorISsSaISsEERiNS_8EModTypeE
   fun:_ZN10TClassEdit10TSplitTypeC1EPKcNS_8EModTypeE
   fun:_ZN11TClassTable3AddEPKcsRKSt9type_infoPFvvEi
   fun:_ZNK4ROOT20TDefaultInitBehavior8RegisterEPKcsRKSt9type_infoPFvvEi
   fun:_ZN4ROOT17TGenericClassInfoC1EPKcS2_iRKSt9type_infoPKNS_13TInitBehaviorEPFvPvR16TMemberInspectorEPFvvEP16TVirtualIsAProxyii
   fun:_ZN4ROOT25GenerateInitInstanceLocalEPK9TClassRef
   fun:_Z41__static_initialization_and_destruction_0ii
   obj:/minerva/app/users/perdue/GENIE/support/root/lib/libCore.so
}
{
   <insert a suppression name here>
   Memcheck:Leak
   fun:_vgrZU_libcZdsoZa_malloc
   fun:G__define
   fun:G__exec_statement
   fun:G__loadfile
   fun:G__include_file
   fun:G__exec_statement
   fun:G__exec_tempfile_core
   fun:G__exec_tempfile_fp
   fun:G__process_cmd
   fun:_ZN5TCint11ProcessLineEPKcPN12TInterpreter10EErrorCodeE
   fun:_ZN5TCintC1EPKcS1_
   fun:_ZN5TROOTC1EPKcS1_PPFvvE
   fun:_ZN4ROOT7GetROOTEv
   fun:_Z41__static_initialization_and_destruction_0ii
   obj:/minerva/app/users/perdue/GENIE/support/root/lib/libCore.so
   obj:/minerva/app/users/perdue/GENIE/support/root/lib/libCore.so
   obj:*
   obj:*
   obj:*
   obj:*
   obj:*
   obj:*
   fun:_vgrZU_libcZdsoZa_malloc
   fun:G__getparameterlist
}
{
   <insert a suppression name here>
   Memcheck:Leak
   fun:_vgrZU_libcZdsoZa_malloc
   fun:_Z18G__make_ifunctableR18G__FastAllocString
   fun:G__define_var
   fun:G__exec_statement
   fun:G__define_struct
   fun:G__exec_statement
   fun:G__loadfile
   fun:G__include_file
   fun:G__exec_statement
   fun:G__exec_tempfile_core
   fun:G__exec_tempfile_fp
   fun:G__process_cmd
   fun:_ZN5TCint11ProcessLineEPKcPN12TInterpreter10EErrorCodeE
   fun:_ZN5TCintC1EPKcS1_
   fun:_ZN5TROOTC1EPKcS1_PPFvvE
   fun:_ZN4ROOT7GetROOTEv
   fun:_Z41__static_initialization_and_destruction_0ii
   obj:/minerva/app/users/perdue/GENIE/support/root/lib/libCore.so
   obj:/minerva/app/users/perdue/GENIE/support/root/lib/libCore.so
   obj:*
   obj:*
   obj:*
   obj:*
   obj:*
}
{
   <insert a suppression name here>
   Memcheck:Leak
   fun:_vgrZU_libstdcZpZpZa__Znwm
   fun:_ZN19TGenCollectionProxy12InitializeExEb
   fun:_ZNK19TGenCollectionProxy13GetValueClassEv
   fun:_ZN14TBuildRealData7InspectEP6TClassPKcS3_PKv
   fun:_ZN14TBranchElement11ShowMembersER16TMemberInspector
   fun:_ZNK6TClass15CallShowMembersEPvR16TMemberInspectori
   fun:_ZN6TClass13BuildRealDataEPvb
   fun:_ZN11TBufferFile16WriteClassBufferEPK6TClassPv
   fun:_ZN14TBranchElement8StreamerER7TBuffer
   fun:_ZN11TBufferFile16WriteObjectClassEPKvPK6TClass
   fun:_ZN11TBufferFile14WriteObjectAnyEPKvPK6TClass
   fun:_ZN9TObjArray8StreamerER7TBuffer
   fun:_ZN11TBufferFile14WriteFastArrayEPvPK6TClassiP15TMemberStreamer
   fun:_ZN13TStreamerInfo14WriteBufferAuxIPPcEEiR7TBufferRKT_iiii
   fun:_ZN20TStreamerInfoActions18GenericWriteActionER7TBufferPvPKNS_14TConfigurationE
   fun:_ZN11TBufferFile13ApplySequenceERKN20TStreamerInfoActions15TActionSequenceEPv
   fun:_ZN11TBufferFile16WriteClassBufferEPK6TClassPv
   fun:_ZN5TTree8StreamerER7TBuffer
   fun:_ZN4TKeyC1EPK7TObjectPKciP10TDirectory
   fun:_ZN5TFile9CreateKeyEP10TDirectoryPK7TObjectPKci
   fun:_ZN14TDirectoryFile12WriteTObjectEPK7TObjectPKcS4_i
   fun:_ZNK7TObject5WriteEPKcii
   fun:_ZN14TDirectoryFile5WriteEPKcii
   fun:_ZN5TFile5WriteEPKcii
}
{
   <insert a suppression name here>
   Memcheck:Leak
   fun:_vgrZU_libstdcZpZpZa__Znwm
   fun:_ZN13TStreamerInfo14AddWriteActionEiP16TStreamerElement
   fun:_ZN13TStreamerInfo7CompileEv
   fun:_ZN13TStreamerInfo5BuildEv
   fun:_ZN11TBufferFile16WriteClassBufferEPK6TClassPv
   fun:_ZN14TBranchElement8StreamerER7TBuffer
   fun:_ZN11TBufferFile16WriteObjectClassEPKvPK6TClass
   fun:_ZN11TBufferFile14WriteObjectAnyEPKvPK6TClass
   fun:_ZN9TObjArray8StreamerER7TBuffer
   fun:_ZN11TBufferFile14WriteFastArrayEPvPK6TClassiP15TMemberStreamer
   fun:_ZN13TStreamerInfo14WriteBufferAuxIPPcEEiR7TBufferRKT_iiii
   fun:_ZN20TStreamerInfoActions18GenericWriteActionER7TBufferPvPKNS_14TConfigurationE
   fun:_ZN11TBufferFile13ApplySequenceERKN20TStreamerInfoActions15TActionSequenceEPv
   fun:_ZN11TBufferFile16WriteClassBufferEPK6TClassPv
   fun:_ZN5TTree8StreamerER7TBuffer
   fun:_ZN4TKeyC1EPK7TObjectPKciP10TDirectory
   fun:_ZN5TFile9CreateKeyEP10TDirectoryPK7TObjectPKci
   fun:_ZN14TDirectoryFile12WriteTObjectEPK7TObjectPKcS4_i
   fun:_ZNK7TObject5WriteEPKcii
   fun:_ZN14TDirectoryFile5WriteEPKcii
   fun:_ZN5TFile5WriteEPKcii
   fun:_ZN5genie9NtpWriter4SaveEv
   fun:_Z31GenerateEventsUsingFluxOrTgtMixv
   fun:main
}
{
   <insert a suppression name here>
   Memcheck:Leak
   fun:_vgrZU_libstdcZpZpZa__Znwm
   fun:_Z23GetCollectionReadActionIN20TStreamerInfoActions15VectorPtrLooperEENS0_17TConfiguredActionEP20TVirtualStreamerInfoP16TStreamerElementiji
   fun:_ZN13TStreamerInfo13AddReadActionEiP16TStreamerElement
   fun:_ZN13TStreamerInfo7CompileEv
   fun:_ZN13TStreamerInfo5BuildEv
   fun:_ZN11TBufferFile16WriteClassBufferEPK6TClassPv
   fun:_ZN14TBranchElement8StreamerER7TBuffer
   fun:_ZN11TBufferFile16WriteObjectClassEPKvPK6TClass
   fun:_ZN11TBufferFile14WriteObjectAnyEPKvPK6TClass
   fun:_ZN9TObjArray8StreamerER7TBuffer
   fun:_ZN11TBufferFile14WriteFastArrayEPvPK6TClassiP15TMemberStreamer
   fun:_ZN13TStreamerInfo14WriteBufferAuxIPPcEEiR7TBufferRKT_iiii
   fun:_ZN20TStreamerInfoActions18GenericWriteActionER7TBufferPvPKNS_14TConfigurationE
   fun:_ZN11TBufferFile13ApplySequenceERKN20TStreamerInfoActions15TActionSequenceEPv
   fun:_ZN11TBufferFile16WriteClassBufferEPK6TClassPv
   fun:_ZN5TTree8StreamerER7TBuffer
   fun:_ZN4TKeyC1EPK7TObjectPKciP10TDirectory
   fun:_ZN5TFile9CreateKeyEP10TDirectoryPK7TObjectPKci
   fun:_ZN14TDirectoryFile12WriteTObjectEPK7TObjectPKcS4_i
   fun:_ZNK7TObject5WriteEPKcii
   fun:_ZN14TDirectoryFile5WriteEPKcii
   fun:_ZN5TFile5WriteEPKcii
   fun:_ZN5genie9NtpWriter4SaveEv
   fun:_Z31GenerateEventsUsingFluxOrTgtMixv
}
{
   <insert a suppression name here>
   Memcheck:Leak
   fun:_vgrZU_libstdcZpZpZa__Znwm
   fun:_ZN13TStreamerInfo13AddReadActionEiP16TStreamerElement
   fun:_ZN13TStreamerInfo7CompileEv
   fun:_ZN13TStreamerInfo5BuildEv
   fun:_ZN11TBufferFile16WriteClassBufferEPK6TClassPv
   fun:_ZN14TBranchElement8StreamerER7TBuffer
   fun:_ZN11TBufferFile16WriteObjectClassEPKvPK6TClass
   fun:_ZN11TBufferFile14WriteObjectAnyEPKvPK6TClass
   fun:_ZN9TObjArray8StreamerER7TBuffer
   fun:_ZN11TBufferFile14WriteFastArrayEPvPK6TClassiP15TMemberStreamer
   fun:_ZN13TStreamerInfo14WriteBufferAuxIPPcEEiR7TBufferRKT_iiii
   fun:_ZN20TStreamerInfoActions18GenericWriteActionER7TBufferPvPKNS_14TConfigurationE
   fun:_ZN11TBufferFile13ApplySequenceERKN20TStreamerInfoActions15TActionSequenceEPv
   fun:_ZN11TBufferFile16WriteClassBufferEPK6TClassPv
   fun:_ZN5TTree8StreamerER7TBuffer
   fun:_ZN4TKeyC1EPK7TObjectPKciP10TDirectory
   fun:_ZN5TFile9CreateKeyEP10TDirectoryPK7TObjectPKci
   fun:_ZN14TDirectoryFile12WriteTObjectEPK7TObjectPKcS4_i
   fun:_ZNK7TObject5WriteEPKcii
   fun:_ZN14TDirectoryFile5WriteEPKcii
   fun:_ZN5TFile5WriteEPKcii
   fun:_ZN5genie9NtpWriter4SaveEv
   fun:_Z31GenerateEventsUsingFluxOrTgtMixv
   fun:main
}
{
   <insert a suppression name here>
   Memcheck:Leak
   fun:_vgrZU_libcZdsoZa_calloc
   fun:_dl_check_map_versions
   fun:dl_open_worker
   fun:_dl_catch_error
   fun:_dl_open
   fun:dlopen_doit
   fun:_dl_catch_error
   fun:_dlerror_run
   fun:dlopen@@GLIBC_2.2.5
   fun:G__dlopen
   fun:G__shl_load
   fun:G__loadfile
   fun:G__loadsystemfile
   fun:_ZN5TCint4LoadEPKcb
   fun:_ZN7TSystem4LoadEPKcS1_b
   fun:_ZN5TROOT9LoadClassEPKcS1_b
   fun:_ZN18TVirtualTreePlayer10TreePlayerEP5TTree
   fun:_ZN5TTree9GetPlayerEv
   fun:_ZN5TTree4DrawEPKcS1_S1_xx
   fun:_ZN5genie6Spline12LoadFromTreeEP5TTreeSsSs
   fun:_ZN5genie6SplineC1EP5TTreeSsSs
   fun:_ZN5genie14INukeHadroData17LoadCrossSectionsEv
   fun:_ZN5genie14INukeHadroDataC1Ev
   fun:_ZN5genie14INukeHadroData8InstanceEv
}
{
   <insert a suppression name here>
   Memcheck:Leak
   fun:_vgrZU_libcZdsoZa_malloc
   fun:G__getparameterlist
   fun:G__define
   fun:G__exec_statement
   fun:G__loadfile
   fun:G__include_file
   fun:G__exec_statement
   fun:G__exec_tempfile_core
   fun:G__exec_tempfile_fp
   fun:G__process_cmd
   fun:_ZN5TCint11ProcessLineEPKcPN12TInterpreter10EErrorCodeE
   fun:_ZN5TCintC1EPKcS1_
   fun:_ZN5TROOTC1EPKcS1_PPFvvE
   fun:_ZN4ROOT7GetROOTEv
   fun:_Z41__static_initialization_and_destruction_0ii
   obj:/minerva/app/users/perdue/GENIE/support/root/lib/libCore.so
   obj:/minerva/app/users/perdue/GENIE/support/root/lib/libCore.so
   obj:*
   obj:*
   obj:*
   obj:*
   obj:*
   obj:*
   fun:_vgrZU_libcZdsoZa_malloc
}
{
   <insert a suppression name here>
   Memcheck:Leak
   fun:_vgrZU_libstdcZpZpZa__Znwm
   fun:_ZN13TStreamerInfo13AddReadActionEiP16TStreamerElement
   fun:_ZN13TStreamerInfo7CompileEv
   fun:_ZN13TStreamerInfo5BuildEv
   fun:_ZNK6TClass15GetStreamerInfoEi
   fun:_ZN13TStreamerInfo5BuildEv
   fun:_ZN11TBufferFile16WriteClassBufferEPK6TClassPv
   fun:_ZN13TStreamerBase8StreamerER7TBuffer
   fun:_ZN11TBufferFile16WriteObjectClassEPKvPK6TClass
   fun:_ZN11TBufferFile14WriteObjectAnyEPKvPK6TClass
   fun:_ZN9TObjArray8StreamerER7TBuffer
   fun:_ZN11TBufferFile16WriteObjectClassEPKvPK6TClass
   fun:_ZN11TBufferFile14WriteObjectAnyEPKvPK6TClass
   fun:_ZlsI9TObjArrayER7TBufferS2_PKT_
   fun:_ZN13TStreamerInfo8StreamerER7TBuffer
   fun:_ZN11TBufferFile16WriteObjectClassEPKvPK6TClass
   fun:_ZN11TBufferFile14WriteObjectAnyEPKvPK6TClass
   fun:_ZN5TList8StreamerER7TBuffer
   fun:_ZN4TKeyC1EPK7TObjectPKciP10TDirectory
   fun:_ZN5TFile17WriteStreamerInfoEv
   fun:_ZN5TFile5CloseEPKc
   fun:_Z13TH1FluxDriverv
   fun:_Z10FluxDriverv
   fun:_Z31GenerateEventsUsingFluxOrTgtMixv
}
{
   <insert a suppression name here>
   Memcheck:Leak
   fun:_vgrZU_libstdcZpZpZa__Znwm
   fun:_ZNK4ROOT11TSchemaRule14ProcessVersionERK7TString
   fun:_ZN4ROOT11TSchemaRule10SetVersionERK7TString
   fun:_ZN4ROOT11TSchemaRule11SetFromRuleEPKc
   fun:_ZN6TClass7AddRuleEPKc
   fun:_ZN21_GLOBAL__N_gCINTMutex16ReadRulesContentEP8_IO_FILE
   fun:_ZN6TClass9ReadRulesEv
   fun:_ZN5TROOTC1EPKcS1_PPFvvE
   fun:_ZN4ROOT7GetROOTEv
   fun:_Z41__static_initialization_and_destruction_0ii
   obj:/minerva/app/users/perdue/GENIE/support/root/lib/libCore.so
   obj:/minerva/app/users/perdue/GENIE/support/root/lib/libCore.so
   obj:*
   obj:*
   obj:*
   obj:*
   obj:*
   obj:*
   fun:_vgrZU_libstdcZpZpZa__Znwm
   fun:_ZNSs4_Rep9_S_createEmmRKSaIcE
   obj:/usr/lib64/libstdc++.so.6.0.8
   fun:_ZNSsC1ERKSsmm
   fun:_ZN4ROOT20TSchemaRuleProcessor14ProcessVersionERKSsRSt4pairIiiE
   fun:_ZNK4ROOT11TSchemaRule14ProcessVersionERK7TString
}
{
   <insert a suppression name here>
   Memcheck:Leak
   fun:_vgrZU_libstdcZpZpZa__Znwm
   fun:_ZN5TList10NewOptLinkEP7TObjectPKcP8TObjLink
   fun:_ZN5TList7AddLastEP7TObjectPKc
   fun:_ZN5TROOTC1EPKcS1_PPFvvE
   fun:_ZN4ROOT7GetROOTEv
   fun:_Z41__static_initialization_and_destruction_0ii
   obj:/minerva/app/users/perdue/GENIE/support/root/lib/libCore.so
   obj:/minerva/app/users/perdue/GENIE/support/root/lib/libCore.so
   obj:*
   obj:*
   obj:*
   obj:*
   obj:*
   obj:*
   fun:_vgrZU_libstdcZpZpZa__Znwm
   fun:_ZN5TList10NewOptLinkEP7TObjectPKcP8TObjLink
   fun:_ZN5TList7AddLastEP7TObjectPKc
   fun:_ZN5TROOTC1EPKcS1_PPFvvE
   fun:_ZN4ROOT7GetROOTEv
   fun:_Z41__static_initialization_and_destruction_0ii
   obj:/minerva/app/users/perdue/GENIE/support/root/lib/libCore.so
   obj:/minerva/app/users/perdue/GENIE/support/root/lib/libCore.so
   obj:*
   obj:*
}
{
   <insert a suppression name here>
   Memcheck:Leak
   fun:_vgrZU_libcZdsoZa_malloc
   fun:xmlNewCharEncodingHandler
   fun:xmlInitCharEncodingHandlers
   fun:xmlInitParser
   fun:xmlSAXParseFileWithData
   fun:_ZN5genie9Messenger24SetPrioritiesFromXmlFileESs
   fun:_ZN5genie9Messenger9ConfigureEv
   fun:_ZN5genie9Messenger8InstanceEv
   fun:_Z18GetCommandLineArgsiPPc
   fun:main
}
{
   <insert a suppression name here>
   Memcheck:Leak
   fun:_vgrZU_libcZdsoZa_malloc
   fun:G__malloc
   fun:_Z16G__allocvariable8G__valuePS_P12G__var_arrayS2_iiPKcPciRN4Cint19G__DataMemberHandleE
   fun:_Z14G__letvariableR18G__FastAllocString8G__valueP12G__var_arrayS3_RN4Cint19G__DataMemberHandleE
   fun:_Z14G__letvariableR18G__FastAllocString8G__valueP12G__var_arrayS3_
   fun:G__getexpr
   fun:G__set_stdio
   fun:G__main
   fun:G__init_cint
   fun:_ZN5TCint8ResetAllEv
   fun:_ZN5TCintC1EPKcS1_
   fun:_ZN5TROOTC1EPKcS1_PPFvvE
   fun:_ZN4ROOT7GetROOTEv
   fun:_Z41__static_initialization_and_destruction_0ii
   obj:/minerva/app/users/perdue/GENIE/support/root/lib/libCore.so
   obj:/minerva/app/users/perdue/GENIE/support/root/lib/libCore.so
   obj:*
   obj:*
   obj:*
   obj:*
   obj:*
   obj:*
   fun:_vgrZU_libcZdsoZa_malloc
   fun:_Z16G__allocvariable8G__valuePS_P12G__var_arrayS2_iiPKcPciRN4Cint19G__DataMemberHandleE
}
{
   <insert a suppression name here>
   Memcheck:Leak
   fun:_vgrZU_libcZdsoZa_malloc
   fun:xmlInitCharEncodingHandlers
   fun:xmlInitParser
   fun:xmlSAXParseFileWithData
   fun:_ZN5genie9Messenger24SetPrioritiesFromXmlFileESs
   fun:_ZN5genie9Messenger9ConfigureEv
   fun:_ZN5genie9Messenger8InstanceEv
   fun:_Z18GetCommandLineArgsiPPc
   fun:main
}
{
   <insert a suppression name here>
   Memcheck:Leak
   fun:_vgrZU_libstdcZpZpZa__Znwm
   fun:_ZN13TStreamerInfo13AddReadActionEiP16TStreamerElement
   fun:_ZN13TStreamerInfo7CompileEv
   fun:_ZN13TStreamerInfo5BuildEv
   fun:_ZNK6TClass15GetStreamerInfoEi
   fun:_ZN13TStreamerInfo5BuildEv
   fun:_ZN11TBufferFile16WriteClassBufferEPK6TClassPv
   fun:_ZN4TKeyC1EPK7TObjectPKciP10TDirectory
   fun:_ZN5TFile9CreateKeyEP10TDirectoryPK7TObjectPKci
   fun:_ZN14TDirectoryFile12WriteTObjectEPK7TObjectPKcS4_i
   fun:_ZNK7TObject5WriteEPKcii
   fun:_Z13TH1FluxDriverv
   fun:_Z10FluxDriverv
   fun:_Z31GenerateEventsUsingFluxOrTgtMixv
   fun:main
}
{
   <insert a suppression name here>
   Memcheck:Leak
   fun:_vgrZU_libstdcZpZpZa__Znam
   fun:_Z41__static_initialization_and_destruction_0ii
   obj:/minerva/app/users/perdue/GENIE/support/root/lib/libGraf.so
   obj:/minerva/app/users/perdue/GENIE/support/root/lib/libGraf.so
   obj:*
   obj:*
   obj:*
   obj:*
}
{
   <insert a suppression name here>
   Memcheck:Leak
   fun:_vgrZU_libstdcZpZpZa__Znam
   fun:_Z41__static_initialization_and_destruction_0ii
   obj:/minerva/app/users/perdue/GENIE/support/root/lib/libGraf.so
   obj:/minerva/app/users/perdue/GENIE/support/root/lib/libGraf.so
   obj:*
   obj:*
   obj:*
   obj:*
   obj:*
   obj:*
   fun:_vgrZU_libstdcZpZpZa__Znam
   fun:_Z41__static_initialization_and_destruction_0ii
   obj:/minerva/app/users/perdue/GENIE/support/root/lib/libGraf.so
   obj:/minerva/app/users/perdue/GENIE/support/root/lib/libGraf.so
   obj:*
   obj:*
   obj:*
   obj:*
}
{
   <insert a suppression name here>
   Memcheck:Leak
   fun:_vgrZU_libstdcZpZpZa__Znam
   fun:_Z41__static_initialization_and_destruction_0ii
   obj:/minerva/app/users/perdue/GENIE/support/root/lib/libGraf.so
   obj:/minerva/app/users/perdue/GENIE/support/root/lib/libGraf.so
   obj:*
   obj:*
   obj:*
   obj:*
}
{
   <insert a suppression name here>
   Memcheck:Leak
   fun:_vgrZU_libstdcZpZpZa__Znam
   fun:_Z41__static_initialization_and_destruction_0ii
   obj:/minerva/app/users/perdue/GENIE/support/root/lib/libGraf.so
   obj:/minerva/app/users/perdue/GENIE/support/root/lib/libGraf.so
   obj:*
   obj:*
   obj:*
   obj:*
}
{
   <insert a suppression name here>
   Memcheck:Leak
   fun:_vgrZU_libcZdsoZa_malloc
   fun:G__getparameterlist
   fun:G__define
   fun:G__exec_statement
   fun:G__loadfile
   fun:G__include_file
   fun:G__exec_statement
   fun:G__exec_tempfile_core
   fun:G__exec_tempfile_fp
   fun:G__process_cmd
   fun:_ZN5TCint11ProcessLineEPKcPN12TInterpreter10EErrorCodeE
   fun:_ZN5TCintC1EPKcS1_
   fun:_ZN5TROOTC1EPKcS1_PPFvvE
   fun:_ZN4ROOT7GetROOTEv
   fun:_Z41__static_initialization_and_destruction_0ii
   obj:/minerva/app/users/perdue/GENIE/support/root/lib/libCore.so
   obj:/minerva/app/users/perdue/GENIE/support/root/lib/libCore.so
   obj:*
   obj:*
   obj:*
   obj:*
   obj:*
   obj:*
   fun:_vgrZU_libcZdsoZa_malloc
}
{
   <insert a suppression name here>
   Memcheck:Leak
   fun:_vgrZU_libcZdsoZa_calloc
   fun:G__malloc
   fun:_Z16G__alloc_var_refIiPFl8G__valueEEviT0_PKcP12G__var_arrayiRS0_
   fun:_Z16G__allocvariable8G__valuePS_P12G__var_arrayS2_iiPKcPciRN4Cint19G__DataMemberHandleE
   fun:_Z14G__letvariableR18G__FastAllocString8G__valueP12G__var_arrayS3_RN4Cint19G__DataMemberHandleE
   fun:_Z14G__letvariableR18G__FastAllocString8G__valueP12G__var_arrayS3_
   fun:G__getexpr
   fun:G__memvar_setup
   fun:_Z22G__setup_memvarTStringv
   fun:G__incsetup_memvar
   fun:_ZN4Cint17G__DataMemberInfoC1ERNS_12G__ClassInfoE
   fun:_ZN5TCint23CreateListOfDataMembersEP6TClass
   fun:_ZN6TClass20GetListOfDataMembersEv
   fun:_ZNK6TClass11GetCheckSumEj
   fun:_ZN13TStreamerInfo5BuildEv
   fun:_ZNK6TClass15GetStreamerInfoEi
   fun:_ZN13TStreamerInfo14ForceWriteInfoEP5TFileb
   fun:_ZN13TStreamerInfo14ForceWriteInfoEP5TFileb
   fun:_ZN13TStreamerInfo14ForceWriteInfoEP5TFileb
   fun:_ZN13TStreamerInfo14ForceWriteInfoEP5TFileb
   fun:_ZN11TBufferFile14WriteFastArrayEPPvPK6TClassibP15TMemberStreamer
   fun:_ZN13TStreamerInfo14WriteBufferAuxIPPcEEiR7TBufferRKT_iiii
   fun:_ZN20TStreamerInfoActions18GenericWriteActionER7TBufferPvPKNS_14TConfigurationE
   fun:_ZN11TBufferFile13ApplySequenceERKN20TStreamerInfoActions15TActionSequenceEPv
}
{
   <insert a suppression name here>
   Memcheck:Leak
   fun:_vgrZU_libstdcZpZpZa__Znwm
   fun:_ZNSt11_Deque_baseI16G__IncSetupStackSaIS0_EE15_M_create_nodesEPPS0_S4_
   fun:_ZNSt11_Deque_baseI16G__IncSetupStackSaIS0_EE17_M_initialize_mapEm
   fun:G__stack_instance
   fun:_ZN16G__IncSetupStack4pushEv
   fun:G__resetplocal
   fun:_Z20G__cpp_setup_global0v
   fun:G__cpp_setup_globalG__TextInput
   fun:G__cpp_setupG__TextInput
   fun:G__call_setup_funcs
   fun:G__main
   fun:G__init_cint
   fun:_ZN5TCint8ResetAllEv
   fun:_ZN5TCintC1EPKcS1_
   fun:_ZN5TROOTC1EPKcS1_PPFvvE
   fun:_ZN4ROOT7GetROOTEv
   fun:_Z41__static_initialization_and_destruction_0ii
   obj:/minerva/app/users/perdue/GENIE/support/root/lib/libCore.so
   obj:/minerva/app/users/perdue/GENIE/support/root/lib/libCore.so
   obj:*
   obj:*
   obj:*
   obj:*
   obj:*
}
{
   <insert a suppression name here>
   Memcheck:Leak
   fun:_vgrZU_libstdcZpZpZa__Znwm
   fun:_ZNSs4_Rep9_S_createEmmRKSaIcE
   fun:_ZNSs9_M_mutateEmmm
   fun:_ZNSs15_M_replace_safeEmmPKcm
   fun:_ZN5genie6Spline10InitSplineEv
   fun:_ZN5genie6SplineC1EP5TTreeSsSs
   fun:_ZN5genie14INukeHadroData17LoadCrossSectionsEv
   fun:_ZN5genie14INukeHadroDataC1Ev
   fun:_ZN5genie14INukeHadroData8InstanceEv
   fun:_ZN5genie11HAIntranuke10LoadConfigEv
   fun:_ZN5genie9Intranuke9ConfigureESs
   fun:_ZNK5genie10AlgFactory20InstantiateAlgorithmESsSs
   fun:_ZN5genie10AlgFactory12GetAlgorithmESsSs
   fun:_ZNK5genie9Algorithm6SubAlgERKSs
   fun:_ZN5genie17HadronTransporter10LoadConfigEv
   fun:_ZN5genie17HadronTransporter9ConfigureESs
   fun:_ZNK5genie10AlgFactory20InstantiateAlgorithmESsSs
   fun:_ZN5genie10AlgFactory12GetAlgorithmESsSs
   fun:_ZNK5genie9Algorithm6SubAlgERKSs
   fun:_ZN5genie14EventGenerator10LoadConfigEv
   fun:_ZN5genie14EventGenerator9ConfigureESs
   fun:_ZNK5genie10AlgFactory20InstantiateAlgorithmESsSs
   fun:_ZN5genie10AlgFactory12GetAlgorithmESsSs
   fun:_ZNK5genie9Algorithm6SubAlgERKSs
}
{
   <insert a suppression name here>
   Memcheck:Leak
   fun:_vgrZU_libstdcZpZpZa__Znwm
   fun:_ZN13TStreamerInfo13AddReadActionEiP16TStreamerElement
   fun:_ZN13TStreamerInfo7CompileEv
   fun:_ZN13TStreamerInfo5BuildEv
   fun:_ZN11TBufferFile16WriteClassBufferEPK6TClassPv
   fun:_ZN5TTree8StreamerER7TBuffer
   fun:_ZN4TKeyC1EPK7TObjectPKciP10TDirectory
   fun:_ZN5TFile9CreateKeyEP10TDirectoryPK7TObjectPKci
   fun:_ZN14TDirectoryFile12WriteTObjectEPK7TObjectPKcS4_i
   fun:_ZNK7TObject5WriteEPKcii
   fun:_ZN14TDirectoryFile5WriteEPKcii
   fun:_ZN5TFile5WriteEPKcii
   fun:_ZN5genie9NtpWriter4SaveEv
   fun:_Z31GenerateEventsUsingFluxOrTgtMixv
   fun:main
}
{
   <insert a suppression name here>
   Memcheck:Leak
   fun:_vgrZU_libstdcZpZpZa__Znwm
   fun:_Z23GetCollectionReadActionIN20TStreamerInfoActions15VectorPtrLooperEENS0_17TConfiguredActionEP20TVirtualStreamerInfoP16TStreamerElementiji
   fun:_ZN13TStreamerInfo13AddReadActionEiP16TStreamerElement
   fun:_ZN13TStreamerInfo7CompileEv
   fun:_ZN13TStreamerInfo5BuildEv
   fun:_ZN11TBufferFile16WriteClassBufferEPK6TClassPv
   fun:_ZN5TTree8StreamerER7TBuffer
   fun:_ZN4TKeyC1EPK7TObjectPKciP10TDirectory
   fun:_ZN5TFile9CreateKeyEP10TDirectoryPK7TObjectPKci
   fun:_ZN14TDirectoryFile12WriteTObjectEPK7TObjectPKcS4_i
   fun:_ZNK7TObject5WriteEPKcii
   fun:_ZN14TDirectoryFile5WriteEPKcii
   fun:_ZN5TFile5WriteEPKcii
   fun:_ZN5genie9NtpWriter4SaveEv
   fun:_Z31GenerateEventsUsingFluxOrTgtMixv
   fun:main
}
{
   <insert a suppression name here>
   Memcheck:Leak
   fun:_vgrZU_libstdcZpZpZa__Znwm
   fun:_Z23GetCollectionReadActionIN20TStreamerInfoActions15VectorPtrLooperEENS0_17TConfiguredActionEP20TVirtualStreamerInfoP16TStreamerElementiji
   fun:_ZN13TStreamerInfo13AddReadActionEiP16TStreamerElement
   fun:_ZN13TStreamerInfo7CompileEv
   fun:_ZN13TStreamerInfo5BuildEv
   fun:_ZNK6TClass15GetStreamerInfoEi
   fun:_ZN13TStreamerInfo14ForceWriteInfoEP5TFileb
   fun:_ZN13TStreamerInfo14ForceWriteInfoEP5TFileb
   fun:_ZN13TStreamerInfo14ForceWriteInfoEP5TFileb
   fun:_ZN13TStreamerInfo14ForceWriteInfoEP5TFileb
   fun:_ZN13TStreamerInfo14ForceWriteInfoEP5TFileb
   fun:_ZN13TStreamerInfo14ForceWriteInfoEP5TFileb
   fun:_ZN5TTree17BuildStreamerInfoEP6TClassPvb
   fun:_ZN5TTree10BronchExecEPKcS1_Pvbii
   fun:_ZN5TTree6BronchEPKcS1_Pvii
   fun:_ZN5TTree6BranchIN5genie16NtpMCEventRecordEEEP7TBranchPKcS6_PPT_ii
   fun:_ZN5genie9NtpWriter21CreateGHEPEventBranchEv
   fun:_ZN5genie9NtpWriter17CreateEventBranchEv
   fun:_ZN5genie9NtpWriter10InitializeEv
   fun:_Z31GenerateEventsUsingFluxOrTgtMixv
   fun:main
}
{
   <insert a suppression name here>
   Memcheck:Leak
   fun:_vgrZU_libstdcZpZpZa__Znwm
   fun:_ZN13TStreamerInfo13AddReadActionEiP16TStreamerElement
   fun:_ZN13TStreamerInfo7CompileEv
   fun:_ZN13TStreamerInfo5BuildEv
   fun:_ZNK6TClass15GetStreamerInfoEi
   fun:_ZN13TStreamerInfo14ForceWriteInfoEP5TFileb
   fun:_ZN11TBufferFile14WriteFastArrayEPPvPK6TClassibP15TMemberStreamer
   fun:_ZN13TStreamerInfo14WriteBufferAuxIPPcEEiR7TBufferRKT_iiii
   fun:_ZN20TStreamerInfoActions18GenericWriteActionER7TBufferPvPKNS_14TConfigurationE
   fun:_ZN11TBufferFile13ApplySequenceERKN20TStreamerInfoActions15TActionSequenceEPv
   fun:_ZN11TBufferFile16WriteClassBufferEPK6TClassPv
   fun:_ZN5TTree8StreamerER7TBuffer
   fun:_ZN4TKeyC1EPK7TObjectPKciP10TDirectory
   fun:_ZN5TFile9CreateKeyEP10TDirectoryPK7TObjectPKci
   fun:_ZN14TDirectoryFile12WriteTObjectEPK7TObjectPKcS4_i
   fun:_ZNK7TObject5WriteEPKcii
   fun:_ZN14TDirectoryFile5WriteEPKcii
   fun:_ZN5TFile5WriteEPKcii
   fun:_ZN5genie9NtpWriter4SaveEv
   fun:_Z31GenerateEventsUsingFluxOrTgtMixv
   fun:main
}
{
   <insert a suppression name here>
   Memcheck:Leak
   fun:_vgrZU_libstdcZpZpZa__Znwm
   fun:_ZN13TStreamerInfo7CompileEv
   fun:_ZN13TStreamerInfo5BuildEv
   fun:_ZN11TBufferFile16WriteClassBufferEPK6TClassPv
   fun:_ZN5TAxis8StreamerER7TBuffer
   fun:_ZN11TBufferFile14WriteFastArrayEPvPK6TClassiP15TMemberStreamer
   fun:_ZN13TStreamerInfo14WriteBufferAuxIPPcEEiR7TBufferRKT_iiii
   fun:_ZN20TStreamerInfoActions18GenericWriteActionER7TBufferPvPKNS_14TConfigurationE
   fun:_ZN11TBufferFile13ApplySequenceERKN20TStreamerInfoActions15TActionSequenceEPv
   fun:_ZN11TBufferFile16WriteClassBufferEPK6TClassPv
   fun:_ZN3TH18StreamerER7TBuffer
   fun:_ZN13TStreamerBase11WriteBufferER7TBufferPc
   fun:_ZN13TStreamerInfo14WriteBufferAuxIPPcEEiR7TBufferRKT_iiii
   fun:_ZN20TStreamerInfoActions18GenericWriteActionER7TBufferPvPKNS_14TConfigurationE
   fun:_ZN11TBufferFile13ApplySequenceERKN20TStreamerInfoActions15TActionSequenceEPv
   fun:_ZN11TBufferFile16WriteClassBufferEPK6TClassPv
   fun:_ZN4TKeyC1EPK7TObjectPKciP10TDirectory
   fun:_ZN5TFile9CreateKeyEP10TDirectoryPK7TObjectPKci
   fun:_ZN14TDirectoryFile12WriteTObjectEPK7TObjectPKcS4_i
   fun:_ZNK7TObject5WriteEPKcii
   fun:_Z13TH1FluxDriverv
   fun:_Z10FluxDriverv
   fun:_Z31GenerateEventsUsingFluxOrTgtMixv
   fun:main
}
{
   <insert a suppression name here>
   Memcheck:Leak
   fun:_vgrZU_libstdcZpZpZa__Znwm
   fun:_ZN13TStreamerInfo7CompileEv
   fun:_ZN13TStreamerInfo5BuildEv
   fun:_ZNK6TClass15GetStreamerInfoEi
   fun:_ZN13TStreamerInfo5BuildEv
   fun:_ZN11TBufferFile16WriteClassBufferEPK6TClassPv
   fun:_ZN4TKeyC1EPK7TObjectPKciP10TDirectory
   fun:_ZN5TFile9CreateKeyEP10TDirectoryPK7TObjectPKci
   fun:_ZN14TDirectoryFile12WriteTObjectEPK7TObjectPKcS4_i
   fun:_ZNK7TObject5WriteEPKcii
   fun:_Z13TH1FluxDriverv
   fun:_Z10FluxDriverv
   fun:_Z31GenerateEventsUsingFluxOrTgtMixv
   fun:main
}
{
   <insert a suppression name here>
   Memcheck:Leak
   fun:_vgrZU_libcZdsoZa_malloc
   fun:_Z18G__make_ifunctableR18G__FastAllocString
   fun:G__define_var
   fun:G__exec_statement
   fun:G__loadfile
   fun:G__process_cmd
   fun:_ZN5TCint11ProcessLineEPKcPN12TInterpreter10EErrorCodeE
   fun:_ZN5TCint16ProcessLineSynchEPKcPN12TInterpreter10EErrorCodeE
   fun:_ZN12TApplication11ExecuteFileEPKcPib
   fun:_ZN5TCint12ExecuteMacroEPKcPN12TInterpreter10EErrorCodeE
   fun:_ZN5TROOT5MacroEPKcPib
   fun:_ZN14TPluginManager17LoadHandlerMacrosEPKc
   fun:_ZN14TPluginManager26LoadHandlersFromPluginDirsEPKc
   fun:_ZN14TPluginManager11FindHandlerEPKcS1_
   fun:_ZN20TVirtualStreamerInfo7FactoryEv
   fun:_ZNK6TClass15GetStreamerInfoEi
   fun:_ZN13TStreamerInfo5BuildEv
   fun:_ZN11TBufferFile16WriteClassBufferEPK6TClassPv
   fun:_ZN4TKeyC1EPK7TObjectPKciP10TDirectory
   fun:_ZN5TFile9CreateKeyEP10TDirectoryPK7TObjectPKci
   fun:_ZN14TDirectoryFile12WriteTObjectEPK7TObjectPKcS4_i
   fun:_ZNK7TObject5WriteEPKcii
   fun:_Z13TH1FluxDriverv
   fun:_Z10FluxDriverv
}
{
   <insert a suppression name here>
   Memcheck:Leak
   fun:_vgrZU_libstdcZpZpZa__Znwm
   fun:_ZN13TStreamerInfo14AddWriteActionEiP16TStreamerElement
   fun:_ZN13TStreamerInfo7CompileEv
   fun:_ZN13TStreamerInfo5BuildEv
   fun:_ZNK6TClass15GetStreamerInfoEi
   fun:_ZN13TStreamerInfo5BuildEv
   fun:_ZNK6TClass15GetStreamerInfoEi
   fun:_ZN13TStreamerInfo5BuildEv
   fun:_ZNK6TClass15GetStreamerInfoEi
   fun:_ZN13TStreamerInfo5BuildEv
   fun:_ZNK6TClass15GetStreamerInfoEi
   fun:_ZN11TBufferFile14WriteFastArrayEPPvPK6TClassibP15TMemberStreamer
   fun:_ZN13TStreamerInfo14WriteBufferAuxIPPcEEiR7TBufferRKT_iiii
   fun:_ZN20TStreamerInfoActions18GenericWriteActionER7TBufferPvPKNS_14TConfigurationE
   fun:_ZN11TBufferFile13ApplySequenceERKN20TStreamerInfoActions15TActionSequenceEPv
   fun:_ZN11TBufferFile16WriteClassBufferEPK6TClassPv
   fun:_ZN5TAxis8StreamerER7TBuffer
   fun:_ZN11TBufferFile14WriteFastArrayEPvPK6TClassiP15TMemberStreamer
   fun:_ZN13TStreamerInfo14WriteBufferAuxIPPcEEiR7TBufferRKT_iiii
   fun:_ZN20TStreamerInfoActions18GenericWriteActionER7TBufferPvPKNS_14TConfigurationE
   fun:_ZN11TBufferFile13ApplySequenceERKN20TStreamerInfoActions15TActionSequenceEPv
   fun:_ZN11TBufferFile16WriteClassBufferEPK6TClassPv
   fun:_ZN3TH18StreamerER7TBuffer
   fun:_ZN13TStreamerBase11WriteBufferER7TBufferPc
}
{
   <insert a suppression name here>
   Memcheck:Leak
   fun:_vgrZU_libstdcZpZpZa__Znwm
   fun:_ZN13TStreamerInfo13AddReadActionEiP16TStreamerElement
   fun:_ZN13TStreamerInfo7CompileEv
   fun:_ZN13TStreamerInfo5BuildEv
   fun:_ZN11TBufferFile16WriteClassBufferEPK6TClassPv
   fun:_ZN5TAxis8StreamerER7TBuffer
   fun:_ZN11TBufferFile14WriteFastArrayEPvPK6TClassiP15TMemberStreamer
   fun:_ZN13TStreamerInfo14WriteBufferAuxIPPcEEiR7TBufferRKT_iiii
   fun:_ZN20TStreamerInfoActions18GenericWriteActionER7TBufferPvPKNS_14TConfigurationE
   fun:_ZN11TBufferFile13ApplySequenceERKN20TStreamerInfoActions15TActionSequenceEPv
   fun:_ZN11TBufferFile16WriteClassBufferEPK6TClassPv
   fun:_ZN3TH18StreamerER7TBuffer
   fun:_ZN13TStreamerBase11WriteBufferER7TBufferPc
   fun:_ZN13TStreamerInfo14WriteBufferAuxIPPcEEiR7TBufferRKT_iiii
   fun:_ZN20TStreamerInfoActions18GenericWriteActionER7TBufferPvPKNS_14TConfigurationE
   fun:_ZN11TBufferFile13ApplySequenceERKN20TStreamerInfoActions15TActionSequenceEPv
   fun:_ZN11TBufferFile16WriteClassBufferEPK6TClassPv
   fun:_ZN4TKeyC1EPK7TObjectPKciP10TDirectory
   fun:_ZN5TFile9CreateKeyEP10TDirectoryPK7TObjectPKci
   fun:_ZN14TDirectoryFile12WriteTObjectEPK7TObjectPKcS4_i
   fun:_ZNK7TObject5WriteEPKcii
   fun:_Z13TH1FluxDriverv
   fun:_Z10FluxDriverv
   fun:_Z31GenerateEventsUsingFluxOrTgtMixv
}
{
   <insert a suppression name here>
   Memcheck:Leak
   fun:_vgrZU_libcZdsoZa_malloc
   fun:add_to_global
   fun:dl_open_worker
   fun:_dl_catch_error
   fun:_dl_open
   fun:dlopen_doit
   fun:_dl_catch_error
   fun:_dlerror_run
   fun:dlopen@@GLIBC_2.2.5
   fun:G__dlopen
   fun:G__shl_load
   fun:G__loadfile
   fun:G__loadsystemfile
   fun:_ZN5TCint4LoadEPKcb
   fun:_ZN7TSystem4LoadEPKcS1_b
   fun:_ZN5TROOT9LoadClassEPKcS1_b
   fun:_ZN18TVirtualTreePlayer10TreePlayerEP5TTree
   fun:_ZN5TTree9GetPlayerEv
   fun:_ZN5TTree4DrawEPKcS1_S1_xx
   fun:_ZN5genie6Spline12LoadFromTreeEP5TTreeSsSs
   fun:_ZN5genie6SplineC1EP5TTreeSsSs
   fun:_ZN5genie14INukeHadroData17LoadCrossSectionsEv
   fun:_ZN5genie14INukeHadroDataC1Ev
   fun:_ZN5genie14INukeHadroData8InstanceEv
}
{
   <insert a suppression name here>
   Memcheck:Leak
   fun:_vgrZU_libstdcZpZpZa__Znam
   fun:_ZN13TSelectorDraw5BeginEP5TTree
   fun:_ZN11TTreePlayer7ProcessEP9TSelectorPKcxx
   fun:_ZN11TTreePlayer10DrawSelectEPKcS1_S1_xx
   fun:_ZN5genie6Spline12LoadFromTreeEP5TTreeSsSs
   fun:_ZN5genie6SplineC1EP5TTreeSsSs
   fun:_ZN5genie14INukeHadroData17LoadCrossSectionsEv
   fun:_ZN5genie14INukeHadroDataC1Ev
   fun:_ZN5genie14INukeHadroData8InstanceEv
   fun:_ZN5genie11HAIntranuke10LoadConfigEv
   fun:_ZN5genie9Intranuke9ConfigureESs
   fun:_ZNK5genie10AlgFactory20InstantiateAlgorithmESsSs
   fun:_ZN5genie10AlgFactory12GetAlgorithmESsSs
   fun:_ZNK5genie9Algorithm6SubAlgERKSs
   fun:_ZN5genie17HadronTransporter10LoadConfigEv
   fun:_ZN5genie17HadronTransporter9ConfigureESs
   fun:_ZNK5genie10AlgFactory20InstantiateAlgorithmESsSs
   fun:_ZN5genie10AlgFactory12GetAlgorithmESsSs
   fun:_ZNK5genie9Algorithm6SubAlgERKSs
   fun:_ZN5genie14EventGenerator10LoadConfigEv
   fun:_ZN5genie14EventGenerator9ConfigureESs
   fun:_ZNK5genie10AlgFactory20InstantiateAlgorithmESsSs
   fun:_ZN5genie10AlgFactory12GetAlgorithmESsSs
   fun:_ZNK5genie9Algorithm6SubAlgERKSs
}
{
   <insert a suppression name here>
   Memcheck:Leak
   fun:_vgrZU_libstdcZpZpZa__Znwm
   fun:_Z23GetCollectionReadActionIN20TStreamerInfoActions15VectorPtrLooperEENS0_17TConfiguredActionEP20TVirtualStreamerInfoP16TStreamerElementiji
   fun:_ZN13TStreamerInfo13AddReadActionEiP16TStreamerElement
   fun:_ZN13TStreamerInfo7CompileEv
   fun:_ZN13TStreamerInfo5BuildEv
   fun:_ZN11TBufferFile16WriteClassBufferEPK6TClassPv
   fun:_ZN22TStreamerObjectPointer8StreamerER7TBuffer
   fun:_ZN11TBufferFile16WriteObjectClassEPKvPK6TClass
   fun:_ZN11TBufferFile14WriteObjectAnyEPKvPK6TClass
   fun:_ZN9TObjArray8StreamerER7TBuffer
   fun:_ZN11TBufferFile16WriteObjectClassEPKvPK6TClass
   fun:_ZN11TBufferFile14WriteObjectAnyEPKvPK6TClass
   fun:_ZlsI9TObjArrayER7TBufferS2_PKT_
   fun:_ZN13TStreamerInfo8StreamerER7TBuffer
   fun:_ZN11TBufferFile16WriteObjectClassEPKvPK6TClass
   fun:_ZN11TBufferFile14WriteObjectAnyEPKvPK6TClass
   fun:_ZN5TList8StreamerER7TBuffer
   fun:_ZN4TKeyC1EPK7TObjectPKciP10TDirectory
   fun:_ZN5TFile17WriteStreamerInfoEv
   fun:_ZN5TFile5CloseEPKc
   fun:_Z13TH1FluxDriverv
   fun:_Z10FluxDriverv
   fun:_Z31GenerateEventsUsingFluxOrTgtMixv
   fun:main
}
{
   <insert a suppression name here>
   Memcheck:Leak
   fun:_vgrZU_libstdcZpZpZa__Znam
   fun:G__main
   fun:G__init_cint
   fun:_ZN5TCint8ResetAllEv
   fun:_ZN5TCintC1EPKcS1_
   fun:_ZN5TROOTC1EPKcS1_PPFvvE
   fun:_ZN4ROOT7GetROOTEv
   fun:_Z41__static_initialization_and_destruction_0ii
   obj:/minerva/app/users/perdue/GENIE/support/root/lib/libCore.so
   obj:/minerva/app/users/perdue/GENIE/support/root/lib/libCore.so
   obj:*
   obj:*
   obj:*
   obj:*
}
{
   <insert a suppression name here>
   Memcheck:Leak
   fun:_vgrZU_libstdcZpZpZa__Znam
   fun:_ZN7TSystemC2EPKcS1_
   fun:_ZN11TUnixSystemC1Ev
   fun:_ZN5TROOT10InitSystemEv
   fun:_ZN5TROOTC1EPKcS1_PPFvvE
   fun:_ZN4ROOT7GetROOTEv
   fun:_Z41__static_initialization_and_destruction_0ii
   obj:/minerva/app/users/perdue/GENIE/support/root/lib/libCore.so
   obj:/minerva/app/users/perdue/GENIE/support/root/lib/libCore.so
   obj:*
   obj:*
   obj:*
   obj:*
}
{
   <insert a suppression name here>
   Memcheck:Leak
   fun:_vgrZU_libstdcZpZpZa__Znam
   fun:G__RegisterLibrary
   fun:G__add_setup_func
   fun:_ZN29G__cpp_setup_initG__TextInputC1Ev
   fun:_Z41__static_initialization_and_destruction_0ii
   fun:_GLOBAL__I_G__set_cpp_environmentG__TextInput
   obj:/minerva/app/users/perdue/GENIE/support/root/lib/libCore.so
   obj:/minerva/app/users/perdue/GENIE/support/root/lib/libCore.so
   obj:*
   obj:*
   obj:*
   obj:*
}
{
   <insert a suppression name here>
   Memcheck:Leak
   fun:_vgrZU_libcZdsoZa_malloc
   fun:G__createtemplateclass
   fun:G__tagtable_setup
   fun:G__cpp_setup_tagtableG__Meta
   fun:G__cpp_setupG__Meta
   fun:G__call_setup_funcs
   fun:G__main
   fun:G__init_cint
   fun:_ZN5TCint8ResetAllEv
   fun:_ZN5TCintC1EPKcS1_
   fun:_ZN5TROOTC1EPKcS1_PPFvvE
   fun:_ZN4ROOT7GetROOTEv
   fun:_Z41__static_initialization_and_destruction_0ii
   obj:/minerva/app/users/perdue/GENIE/support/root/lib/libCore.so
   obj:/minerva/app/users/perdue/GENIE/support/root/lib/libCore.so
   obj:*
   obj:*
   obj:*
   obj:*
   obj:*
   obj:*
   fun:_vgrZU_libcZdsoZa_malloc
   fun:G__createtemplateclass
   fun:G__tagtable_setup
}
{
   <insert a suppression name here>
   Memcheck:Leak
   fun:_vgrZU_libstdcZpZpZa__Znam
   fun:_ZN13TStreamerInfo7CompileEv
   fun:_ZN13TStreamerInfo5BuildEv
   fun:_ZNK6TClass15GetStreamerInfoEi
   fun:_ZN13TStreamerInfo5BuildEv
   fun:_ZNK6TClass15GetStreamerInfoEi
   fun:_ZN11TBufferFile14WriteFastArrayEPPvPK6TClassibP15TMemberStreamer
   fun:_ZN13TStreamerInfo14WriteBufferAuxIPPcEEiR7TBufferRKT_iiii
   fun:_ZN20TStreamerInfoActions18GenericWriteActionER7TBufferPvPKNS_14TConfigurationE
   fun:_ZN11TBufferFile13ApplySequenceERKN20TStreamerInfoActions15TActionSequenceEPv
   fun:_ZN11TBufferFile16WriteClassBufferEPK6TClassPv
   fun:_ZN5TAxis8StreamerER7TBuffer
   fun:_ZN11TBufferFile14WriteFastArrayEPvPK6TClassiP15TMemberStreamer
   fun:_ZN13TStreamerInfo14WriteBufferAuxIPPcEEiR7TBufferRKT_iiii
   fun:_ZN20TStreamerInfoActions18GenericWriteActionER7TBufferPvPKNS_14TConfigurationE
   fun:_ZN11TBufferFile13ApplySequenceERKN20TStreamerInfoActions15TActionSequenceEPv
   fun:_ZN11TBufferFile16WriteClassBufferEPK6TClassPv
   fun:_ZN3TH18StreamerER7TBuffer
   fun:_ZN13TStreamerBase11WriteBufferER7TBufferPc
   fun:_ZN13TStreamerInfo14WriteBufferAuxIPPcEEiR7TBufferRKT_iiii
   fun:_ZN20TStreamerInfoActions18GenericWriteActionER7TBufferPvPKNS_14TConfigurationE
   fun:_ZN11TBufferFile13ApplySequenceERKN20TStreamerInfoActions15TActionSequenceEPv
   fun:_ZN11TBufferFile16WriteClassBufferEPK6TClassPv
   fun:_ZN4TKeyC1EPK7TObjectPKciP10TDirectory
}
{
   <insert a suppression name here>
   Memcheck:Leak
   fun:_vgrZU_libstdcZpZpZa__Znam
   fun:_ZN13TStreamerInfo7CompileEv
   fun:_ZN13TStreamerInfo5BuildEv
   fun:_ZNK6TClass15GetStreamerInfoEi
   fun:_ZN13TStreamerInfo5BuildEv
   fun:_ZNK6TClass15GetStreamerInfoEi
   fun:_ZN13TStreamerInfo5BuildEv
   fun:_ZN11TBufferFile16WriteClassBufferEPK6TClassPv
   fun:_ZN4TKeyC1EPK7TObjectPKciP10TDirectory
   fun:_ZN5TFile9CreateKeyEP10TDirectoryPK7TObjectPKci
   fun:_ZN14TDirectoryFile12WriteTObjectEPK7TObjectPKcS4_i
   fun:_ZNK7TObject5WriteEPKcii
   fun:_Z13TH1FluxDriverv
   fun:_Z10FluxDriverv
   fun:_Z31GenerateEventsUsingFluxOrTgtMixv
   fun:main
}
{
   <insert a suppression name here>
   Memcheck:Leak
   fun:_vgrZU_libstdcZpZpZa__Znwm
   fun:_ZN4ROOT14DefineBehaviorEP8TQObjectS1_
   fun:_ZN4ROOT25GenerateInitInstanceLocalEPK12TApplication
   fun:_Z41__static_initialization_and_destruction_0ii
   fun:_GLOBAL__I__ZN4ROOT20GenerateInitInstanceEPK7TBuffer
   obj:/minerva/app/users/perdue/GENIE/support/root/lib/libCore.so
   obj:/minerva/app/users/perdue/GENIE/support/root/lib/libCore.so
   obj:*
   obj:*
   obj:*
   obj:*
   obj:*
   obj:*
   fun:_vgrZU_libstdcZpZpZa__Znwm
   fun:_ZNSs4_Rep9_S_createEmmRKSaIcE
   fun:_ZNSs4_Rep8_M_cloneERKSaIcEm
   fun:_ZNSs7reserveEm
   fun:_ZN10TClassEdit9CleanTypeEPKciPS1_
   fun:_ZN10TClassEdit8GetSplitEPKcRSt6vectorISsSaISsEERiNS_8EModTypeE
   fun:_ZN10TClassEdit10TSplitTypeC1EPKcNS_8EModTypeE
   fun:_ZN11TClassTable3AddEPKcsRKSt9type_infoPFvvEi
   fun:_ZNK4ROOT20TDefaultInitBehavior8RegisterEPKcsRKSt9type_infoPFvvEi
   fun:_ZN4ROOT17TGenericClassInfoC1EPKciS2_iRKSt9type_infoPKNS_13TInitBehaviorEPFvvEP16TVirtualIsAProxyii
   fun:_ZN4ROOT25GenerateInitInstanceLocalEPK12TApplication
}
{
   <insert a suppression name here>
   Memcheck:Leak
   fun:_vgrZU_libstdcZpZpZa__Znam
   fun:_ZN13TStreamerInfo7CompileEv
   fun:_ZN13TStreamerInfo5BuildEv
   fun:_ZNK6TClass15GetStreamerInfoEi
   fun:_ZN13TStreamerInfo5BuildEv
   fun:_ZNK6TClass15GetStreamerInfoEi
   fun:_ZN13TStreamerInfo5BuildEv
   fun:_ZN11TBufferFile16WriteClassBufferEPK6TClassPv
   fun:_ZN4TKeyC1EPK7TObjectPKciP10TDirectory
   fun:_ZN5TFile9CreateKeyEP10TDirectoryPK7TObjectPKci
   fun:_ZN14TDirectoryFile12WriteTObjectEPK7TObjectPKcS4_i
   fun:_ZNK7TObject5WriteEPKcii
   fun:_Z13TH1FluxDriverv
   fun:_Z10FluxDriverv
   fun:_Z31GenerateEventsUsingFluxOrTgtMixv
   fun:main
}
{
   <insert a suppression name here>
   Memcheck:Leak
   fun:_vgrZU_libstdcZpZpZa__Znam
   fun:_ZN13TStreamerInfo7CompileEv
   fun:_ZN13TStreamerInfo5BuildEv
   fun:_ZNK6TClass15GetStreamerInfoEi
   fun:_ZN13TStreamerInfo5BuildEv
   fun:_ZNK6TClass15GetStreamerInfoEi
   fun:_ZN13TStreamerInfo5BuildEv
   fun:_ZN11TBufferFile16WriteClassBufferEPK6TClassPv
   fun:_ZN4TKeyC1EPK7TObjectPKciP10TDirectory
   fun:_ZN5TFile9CreateKeyEP10TDirectoryPK7TObjectPKci
   fun:_ZN14TDirectoryFile12WriteTObjectEPK7TObjectPKcS4_i
   fun:_ZNK7TObject5WriteEPKcii
   fun:_Z13TH1FluxDriverv
   fun:_Z10FluxDriverv
   fun:_Z31GenerateEventsUsingFluxOrTgtMixv
   fun:main
}
{
   <insert a suppression name here>
   Memcheck:Leak
   fun:_vgrZU_libstdcZpZpZa__Znwm
   fun:G__incsetup_memfunc
   fun:G__get_methodhandle_noerror
   fun:G__get_methodhandle
   fun:_ZN4Cint12G__ClassInfo9GetMethodEPKcS2_PlNS0_9MatchModeENS0_15InheritanceModeE
   fun:_ZNK5TCint23ClassInfo_IsValidMethodEPvPKcS2_Pl
   fun:_ZNK6TClass8PropertyEv
   fun:_ZNK6TClass9IsForeignEv
   fun:_ZN6TClass13PostLoadCheckEv
   fun:_ZNK5TROOT9LoadClassEPKcb
   fun:_ZN6TClass8GetClassEPKcbb
   fun:_ZN10TBaseClass15GetClassPointerEb
   fun:_ZN6TClass12GetBaseClassEPKS_
   fun:_ZN6TClass12GetBaseClassEPKS_
   fun:_ZNK6TClass12InheritsFromEPKS_
   fun:_ZN14TBuildRealData7InspectEP6TClassPKcS3_PKv
   fun:_ZN5TAxis11ShowMembersER16TMemberInspector
   fun:_ZN3TH111ShowMembersER16TMemberInspector
   fun:_ZN4TH1D11ShowMembersER16TMemberInspector
   fun:_ZNK6TClass15CallShowMembersEPvR16TMemberInspectori
   fun:_ZN6TClass13BuildRealDataEPvb
   fun:_ZN11TBufferFile16WriteClassBufferEPK6TClassPv
   fun:_ZN4TKeyC1EPK7TObjectPKciP10TDirectory
   fun:_ZN5TFile9CreateKeyEP10TDirectoryPK7TObjectPKci
}
{
   <insert a suppression name here>
   Memcheck:Leak
   fun:_vgrZU_libcZdsoZa_malloc
   fun:G__memfunc_para_setup
   fun:G__parse_parameter_link
   fun:G__memfunc_setup_imp
   fun:_Z47G__setup_memfuncgeniecLcLHadronizationModelBasev
   fun:G__incsetup_memfunc
   fun:_ZN4Cint12G__ClassInfo9HasMethodEPKc
   fun:_ZNK5TCint19ClassInfo_HasMethodEPvPKc
   fun:_ZNK6TClass8PropertyEv
   fun:_ZNK6TClass9IsForeignEv
   fun:_ZN6TClass13PostLoadCheckEv
   fun:_ZNK5TROOT9LoadClassEPKcb
   fun:_ZN6TClass8GetClassEPKcbb
   fun:_ZN10TBaseClass15GetClassPointerEb
   fun:_ZN6TClass12GetBaseClassEPKS_
   fun:_ZNK6TClass12InheritsFromEPKS_
   fun:_ZNK6TClass8PropertyEv
   fun:_ZNK6TClass9IsForeignEv
   fun:_ZN6TClass13PostLoadCheckEv
   fun:_ZNK5TROOT9LoadClassEPKcb
   fun:_ZN6TClass8GetClassEPKcbb
   fun:_ZNK5genie10AlgFactory20InstantiateAlgorithmESsSs
   fun:_ZN5genie10AlgFactory12GetAlgorithmESsSs
   fun:_ZNK5genie9Algorithm6SubAlgERKSs
}
{
   <insert a suppression name here>
   Memcheck:Leak
   fun:_vgrZU_libstdcZpZpZa__Znam
   fun:_Z6StrDupPKc
   fun:_ZN11TClassTable3AddEPKcsRKSt9type_infoPFvvEi
   fun:_ZNK4ROOT20TDefaultInitBehavior8RegisterEPKcsRKSt9type_infoPFvvEi
   fun:_ZN4ROOT17TGenericClassInfoC1EPKciS2_iPKNS_13TInitBehaviorEPFvvEi
   fun:_ZN10TClassEdit4ROOT20GenerateInitInstanceEv
   fun:_Z41__static_initialization_and_destruction_0ii
   fun:_GLOBAL__I__ZN10TClassEdit4ROOT54coredImetautilsdIsrcdIG__MetaUtilsInitFunctionKeeper55E
   obj:/minerva/app/users/perdue/GENIE/support/root/lib/libCore.so
   obj:/minerva/app/users/perdue/GENIE/support/root/lib/libCore.so
   obj:*
   obj:*
   obj:*
   obj:*
}
{
   <insert a suppression name here>
   Memcheck:Leak
   fun:_vgrZU_libcZdsoZa_malloc
   fun:G__memfunc_para_setup
   fun:G__parse_parameter_link
   fun:G__memfunc_setup_imp
   fun:_Z29G__setup_memfuncTStreamerInfov
   fun:G__incsetup_memfunc
   fun:_ZN4Cint12G__ClassInfo9HasMethodEPKc
   fun:_ZNK5TCint19ClassInfo_HasMethodEPvPKc
   fun:_ZNK6TClass8PropertyEv
   fun:_ZNK6TClass9IsForeignEv
   fun:_ZN6TClass13PostLoadCheckEv
   fun:_ZNK5TROOT9LoadClassEPKcb
   fun:_ZN14TPluginHandler10LoadPluginEv
   fun:_ZN20TVirtualStreamerInfo7FactoryEv
   fun:_ZNK6TClass15GetStreamerInfoEi
   fun:_ZN13TStreamerInfo5BuildEv
   fun:_ZN11TBufferFile16WriteClassBufferEPK6TClassPv
   fun:_ZN4TKeyC1EPK7TObjectPKciP10TDirectory
   fun:_ZN5TFile9CreateKeyEP10TDirectoryPK7TObjectPKci
   fun:_ZN14TDirectoryFile12WriteTObjectEPK7TObjectPKcS4_i
   fun:_ZNK7TObject5WriteEPKcii
   fun:_Z13TH1FluxDriverv
   fun:_Z10FluxDriverv
   fun:_Z31GenerateEventsUsingFluxOrTgtMixv
}
{
   <insert a suppression name here>
   Memcheck:Leak
   fun:_vgrZU_libstdcZpZpZa__Znam
   fun:_ZN8TStorage5AllocEm
   fun:_ZN9TObjArray4InitEii
   fun:_ZN9TObjArrayC1Eii
   fun:_ZN6TClass4InitEPKcsPKSt9type_infoP16TVirtualIsAProxyPFvPvR16TMemberInspectorES1_S1_iib
   fun:_ZN6TClassC1EPKcsRKSt9type_infoP16TVirtualIsAProxyPFvPvR16TMemberInspectorES1_S1_iib
   fun:_ZN4ROOT11CreateClassEPKcsRKSt9type_infoP16TVirtualIsAProxyPFvPvR16TMemberInspectorES1_S1_ii
   fun:_ZNK4ROOT20TDefaultInitBehavior11CreateClassEPKcsRKSt9type_infoP16TVirtualIsAProxyPFvPvR16TMemberInspectorES2_S2_ii
   fun:_ZN4ROOT17TGenericClassInfo8GetClassEv
   fun:_ZN4ROOT43geniecLcLNucBindEnergyAggregator_DictionaryEv
   fun:_ZNK5TROOT9LoadClassEPKcb
   fun:_ZN6TClass8GetClassEPKcbb
   fun:_ZNK5genie10AlgFactory20InstantiateAlgorithmESsSs
   fun:_ZN5genie10AlgFactory12GetAlgorithmESsSs
   fun:_ZNK5genie9Algorithm6SubAlgERKSs
   fun:_ZN5genie14EventGenerator10LoadConfigEv
   fun:_ZN5genie14EventGenerator9ConfigureESs
   fun:_ZNK5genie10AlgFactory20InstantiateAlgorithmESsSs
   fun:_ZN5genie10AlgFactory12GetAlgorithmESsSs
   fun:_ZNK5genie9Algorithm6SubAlgERKSs
   fun:_ZN5genie27EventGeneratorListAssembler13LoadGeneratorEi
   fun:_ZN5genie27EventGeneratorListAssembler21AssembleGeneratorListEv
   fun:_ZN5genie10GEVGDriver18BuildGeneratorListEv
   fun:_ZN5genie10GEVGDriver9ConfigureERKNS_12InitialStateE
}
{
   <insert a suppression name here>
   Memcheck:Leak
   fun:_vgrZU_libcZdsoZa_malloc
   fun:G__savestring
   fun:G__memfunc_setup_imp
   fun:_Z24G__setup_memfuncTAttLinev
   fun:G__incsetup_memfunc
   fun:_ZN4Cint12G__ClassInfo9HasMethodEPKc
   fun:_ZNK5TCint19ClassInfo_HasMethodEPvPKc
   fun:_ZNK6TClass8PropertyEv
   fun:_ZNK6TClass9IsForeignEv
   fun:_ZN6TClass13PostLoadCheckEv
   fun:_ZNK5TROOT9LoadClassEPKcb
   fun:_ZN6TClass8GetClassEPKcbb
   fun:_ZN10TBaseClass15GetClassPointerEb
   fun:_ZN6TClass12GetBaseClassEPKS_
   fun:_ZN6TClass12GetBaseClassEPKS_
   fun:_ZNK6TClass12InheritsFromEPKS_
   fun:_ZN14TBuildRealData7InspectEP6TClassPKcS3_PKv
   fun:_ZN5TAxis11ShowMembersER16TMemberInspector
   fun:_ZN3TH111ShowMembersER16TMemberInspector
   fun:_ZN4TH1D11ShowMembersER16TMemberInspector
   fun:_ZNK6TClass15CallShowMembersEPvR16TMemberInspectori
   fun:_ZN6TClass13BuildRealDataEPvb
   fun:_ZN11TBufferFile16WriteClassBufferEPK6TClassPv
   fun:_ZN4TKeyC1EPK7TObjectPKciP10TDirectory
}
{
   <insert a suppression name here>
   Memcheck:Leak
   fun:_vgrZU_libcZdsoZa_malloc
   fun:xmlStrndup
   fun:xmlNewNode
   fun:xmlNewDocNode
   fun:xmlSAX2StartElementNs
   obj:/usr/lib64/libxml2.so.2.6.26
   fun:xmlParseElement
   fun:xmlParseDocument
   fun:xmlSAXParseFileWithData
   fun:_ZN5genie13AlgConfigPool14LoadRegistriesESsSsSs
   fun:_ZN5genie13AlgConfigPool19LoadSingleAlgConfigESsSs
   fun:_ZN5genie13AlgConfigPool13LoadAlgConfigEv
   fun:_ZN5genie13AlgConfigPoolC1Ev
   fun:_ZN5genie13AlgConfigPool8InstanceEv
   fun:_ZN5genie10GMCJDriver7InitJobEv
   fun:_ZN5genie10GMCJDriverC1Ev
   fun:_Z31GenerateEventsUsingFluxOrTgtMixv
   fun:main
}
{
   <insert a suppression name here>
   Memcheck:Leak
   fun:_vgrZU_libstdcZpZpZa__Znwm
   fun:_ZN5TList7NewLinkEP7TObjectP8TObjLink
   fun:_ZN5TList7AddLastEP7TObject
   fun:_ZN9THashList7AddLastEP7TObject
   fun:_ZN12TDatabasePDG11AddParticleEPKcS1_dbddS1_iii
   fun:_ZN12TDatabasePDG12ReadPDGTableEPKc
   fun:_ZN5genie10PDGLibrary9LoadDBaseEv
   fun:_ZN5genie10PDGLibraryC1Ev
   fun:_ZN5genie10PDGLibrary8InstanceEv
   fun:_ZNK5genie11PDGCodeList18ExistsInPDGLibraryEi
   fun:_ZNK5genie11PDGCodeList12CheckPDGCodeEi
   fun:_ZN5genie11PDGCodeList9push_backEi
   fun:_ZN5genie4flux14GCylindTH1Flux17AddEnergySpectrumEiP4TH1D
   fun:_Z13TH1FluxDriverv
   fun:_Z10FluxDriverv
   fun:_Z31GenerateEventsUsingFluxOrTgtMixv
   fun:main
}
{
   <insert a suppression name here>
   Memcheck:Leak
   fun:_vgrZU_libcZdsoZa_malloc
   obj:/usr/lib64/libxml2.so.2.6.26
   fun:xmlSAX2Characters
   fun:xmlParseContent
   fun:xmlParseElement
   fun:xmlParseContent
   fun:xmlParseElement
   fun:xmlParseDocument
   fun:xmlSAXParseFileWithData
   fun:_ZN5genie13AlgConfigPool14LoadRegistriesESsSsSs
   fun:_ZN5genie13AlgConfigPool19LoadSingleAlgConfigESsSs
   fun:_ZN5genie13AlgConfigPool13LoadAlgConfigEv
   fun:_ZN5genie13AlgConfigPoolC1Ev
   fun:_ZN5genie13AlgConfigPool8InstanceEv
   fun:_ZN5genie10GMCJDriver7InitJobEv
   fun:_ZN5genie10GMCJDriverC1Ev
   fun:_Z31GenerateEventsUsingFluxOrTgtMixv
   fun:main
}
{
   <insert a suppression name here>
   Memcheck:Leak
   fun:_vgrZU_libstdcZpZpZa__Znam
   fun:_ZN11TClassTableC1Ev
   fun:_ZN11TClassTable3AddEPKcsRKSt9type_infoPFvvEi
   fun:_ZNK4ROOT20TDefaultInitBehavior8RegisterEPKcsRKSt9type_infoPFvvEi
   fun:_ZN4ROOT17TGenericClassInfoC1EPKciS2_iPKNS_13TInitBehaviorEPFvvEi
   fun:_ZN10TClassEdit4ROOT20GenerateInitInstanceEv
   fun:_Z41__static_initialization_and_destruction_0ii
   fun:_GLOBAL__I__ZN10TClassEdit4ROOT54coredImetautilsdIsrcdIG__MetaUtilsInitFunctionKeeper55E
   obj:/minerva/app/users/perdue/GENIE/support/root/lib/libCore.so
   obj:/minerva/app/users/perdue/GENIE/support/root/lib/libCore.so
   obj:*
   obj:*
   obj:*
   obj:*
}
{
   <insert a suppression name here>
   Memcheck:Leak
   fun:_vgrZU_libstdcZpZpZa__Znwm
   fun:_ZN11TClassTable15FindElementImplEPKcb
   fun:_ZN11TClassTable3AddEPKcsRKSt9type_infoPFvvEi
   fun:_ZNK4ROOT20TDefaultInitBehavior8RegisterEPKcsRKSt9type_infoPFvvEi
   fun:_ZN4ROOT17TGenericClassInfoC1EPKciS2_iPKNS_13TInitBehaviorEPFvvEi
   fun:_ZN10TClassEdit4ROOT20GenerateInitInstanceEv
   fun:_Z41__static_initialization_and_destruction_0ii
   fun:_GLOBAL__I__ZN10TClassEdit4ROOT54coredImetautilsdIsrcdIG__MetaUtilsInitFunctionKeeper55E
   obj:/minerva/app/users/perdue/GENIE/support/root/lib/libCore.so
   obj:/minerva/app/users/perdue/GENIE/support/root/lib/libCore.so
   obj:*
   obj:*
   obj:*
   obj:*
   obj:*
   obj:*
   fun:_vgrZU_libstdcZpZpZa__Znam
   fun:_Z6StrDupPKc
   fun:_ZN11TClassTable3AddEPKcsRKSt9type_infoPFvvEi
   fun:_ZNK4ROOT20TDefaultInitBehavior8RegisterEPKcsRKSt9type_infoPFvvEi
   fun:_ZN4ROOT17TGenericClassInfoC1EPKciS2_iPKNS_13TInitBehaviorEPFvvEi
   fun:_ZN10TClassEdit4ROOT20GenerateInitInstanceEv
   fun:_Z41__static_initialization_and_destruction_0ii
   fun:_GLOBAL__I__ZN10TClassEdit4ROOT54coredImetautilsdIsrcdIG__MetaUtilsInitFunctionKeeper55E
}
{
   <insert a suppression name here>
   Memcheck:Leak
   fun:_vgrZU_libstdcZpZpZa__Znam
   fun:_ZN10THashTableC1Eii
   fun:_ZN4TMapC1Eii
   fun:_ZN11TClassTableC1Ev
   fun:_ZN11TClassTable3AddEPKcsRKSt9type_infoPFvvEi
   fun:_ZNK4ROOT20TDefaultInitBehavior8RegisterEPKcsRKSt9type_infoPFvvEi
   fun:_ZN4ROOT17TGenericClassInfoC1EPKciS2_iPKNS_13TInitBehaviorEPFvvEi
   fun:_ZN10TClassEdit4ROOT20GenerateInitInstanceEv
   fun:_Z41__static_initialization_and_destruction_0ii
   fun:_GLOBAL__I__ZN10TClassEdit4ROOT54coredImetautilsdIsrcdIG__MetaUtilsInitFunctionKeeper55E
   obj:/minerva/app/users/perdue/GENIE/support/root/lib/libCore.so
   obj:/minerva/app/users/perdue/GENIE/support/root/lib/libCore.so
   obj:*
   obj:*
   obj:*
   obj:*
}
{
   <insert a suppression name here>
   Memcheck:Leak
   fun:_vgrZU_libcZdsoZa_malloc
   fun:xmlNewComment
   fun:xmlNewDocComment
   fun:xmlSAX2Comment
   fun:xmlParseComment
   fun:xmlParseContent
   fun:xmlParseElement
   fun:xmlParseContent
   fun:xmlParseElement
   fun:xmlParseDocument
   fun:xmlSAXParseFileWithData
   fun:_ZN5genie13AlgConfigPool14LoadRegistriesESsSsSs
   fun:_ZN5genie13AlgConfigPool19LoadSingleAlgConfigESsSs
   fun:_ZN5genie13AlgConfigPool13LoadAlgConfigEv
   fun:_ZN5genie13AlgConfigPoolC1Ev
   fun:_ZN5genie13AlgConfigPool8InstanceEv
   fun:_ZN5genie10GMCJDriver7InitJobEv
   fun:_ZN5genie10GMCJDriverC1Ev
   fun:_Z31GenerateEventsUsingFluxOrTgtMixv
   fun:main
}
{
   <insert a suppression name here>
   Memcheck:Leak
   fun:_vgrZU_libstdcZpZpZa__Znwm
   fun:_ZN5TCint23CreateListOfDataMembersEP6TClass
   fun:_ZN6TClass20GetListOfDataMembersEv
   fun:_ZNK6TClass13GetDataMemberEPKc
   fun:_ZN14TBuildRealData7InspectEP6TClassPKcS3_PKv
   fun:_ZN14TSeqCollection11ShowMembersER16TMemberInspector
   fun:_ZNK6TClass15CallShowMembersEPvR16TMemberInspectori
   fun:_ZN6TClass13BuildRealDataEPvb
   fun:_ZN13TStreamerInfo5BuildEv
   fun:_ZNK6TClass15GetStreamerInfoEi
   fun:_ZN11TBufferFile14WriteFastArrayEPPvPK6TClassibP15TMemberStreamer
   fun:_ZN13TStreamerInfo14WriteBufferAuxIPPcEEiR7TBufferRKT_iiii
   fun:_ZN20TStreamerInfoActions18GenericWriteActionER7TBufferPvPKNS_14TConfigurationE
   fun:_ZN11TBufferFile13ApplySequenceERKN20TStreamerInfoActions15TActionSequenceEPv
   fun:_ZN11TBufferFile16WriteClassBufferEPK6TClassPv
   fun:_ZN5TAxis8StreamerER7TBuffer
   fun:_ZN11TBufferFile14WriteFastArrayEPvPK6TClassiP15TMemberStreamer
   fun:_ZN13TStreamerInfo14WriteBufferAuxIPPcEEiR7TBufferRKT_iiii
   fun:_ZN20TStreamerInfoActions18GenericWriteActionER7TBufferPvPKNS_14TConfigurationE
   fun:_ZN11TBufferFile13ApplySequenceERKN20TStreamerInfoActions15TActionSequenceEPv
   fun:_ZN11TBufferFile16WriteClassBufferEPK6TClassPv
   fun:_ZN3TH18StreamerER7TBuffer
   fun:_ZN13TStreamerBase11WriteBufferER7TBufferPc
   fun:_ZN13TStreamerInfo14WriteBufferAuxIPPcEEiR7TBufferRKT_iiii
}
{
   <insert a suppression name here>
   Memcheck:Leak
   fun:_vgrZU_libstdcZpZpZa__Znam
   fun:_ZN12TObjectTableC1Ei
   fun:_ZN12TObjectTable6AddObjEP7TObject
   fun:_ZN11TClassTableC1Ev
   fun:_ZN11TClassTable3AddEPKcsRKSt9type_infoPFvvEi
   fun:_ZNK4ROOT20TDefaultInitBehavior8RegisterEPKcsRKSt9type_infoPFvvEi
   fun:_ZN4ROOT17TGenericClassInfoC1EPKciS2_iPKNS_13TInitBehaviorEPFvvEi
   fun:_ZN10TClassEdit4ROOT20GenerateInitInstanceEv
   fun:_Z41__static_initialization_and_destruction_0ii
   fun:_GLOBAL__I__ZN10TClassEdit4ROOT54coredImetautilsdIsrcdIG__MetaUtilsInitFunctionKeeper55E
   obj:/minerva/app/users/perdue/GENIE/support/root/lib/libCore.so
   obj:/minerva/app/users/perdue/GENIE/support/root/lib/libCore.so
   obj:*
   obj:*
   obj:*
   obj:*
}
{
   <insert a suppression name here>
   Memcheck:Leak
   fun:_vgrZU_libcZdsoZa_malloc
   fun:G__memfunc_para_setup
   fun:G__parse_parameter_link
   fun:G__memfunc_setup_imp
   fun:_Z21G__setup_memfuncTLeafv
   fun:G__incsetup_memfunc
   fun:_ZN4Cint12G__ClassInfo9HasMethodEPKc
   fun:_ZNK5TCint19ClassInfo_HasMethodEPvPKc
   fun:_ZNK6TClass8PropertyEv
   fun:_ZNK6TClass9IsForeignEv
   fun:_ZN6TClass13PostLoadCheckEv
   fun:_ZNK5TROOT9LoadClassEPKcb
   fun:_ZN6TClass8GetClassEPKcbb
   fun:_ZN10TBaseClass15GetClassPointerEb
   fun:_ZN6TClass12GetBaseClassEPKS_
   fun:_ZNK6TClass12InheritsFromEPKS_
   fun:_ZNK7TObject12InheritsFromEPK6TClass
   fun:_ZN7TBranch4InitEPKcS1_i
   fun:_ZN7TBranchC1EP5TTreePKcPvS3_ii
   fun:_ZN5TTree10ReadStreamERSiPKcc
   fun:_ZN5TTree8ReadFileEPKcS1_c
   fun:_ZN5genie14INukeHadroData17LoadCrossSectionsEv
   fun:_ZN5genie14INukeHadroDataC1Ev
   fun:_ZN5genie14INukeHadroData8InstanceEv
}
{
   <insert a suppression name here>
   Memcheck:Leak
   fun:_vgrZU_libcZdsoZa_malloc
   fun:G__memfunc_setup_imp
   fun:_Z48G__setup_memfuncgeniecLcLPhysInteractionSelectorv
   fun:G__incsetup_memfunc
   fun:_ZN4Cint12G__ClassInfo9HasMethodEPKc
   fun:_ZNK5TCint19ClassInfo_HasMethodEPvPKc
   fun:_ZNK6TClass8PropertyEv
   fun:_ZNK6TClass9IsForeignEv
   fun:_ZN6TClass13PostLoadCheckEv
   fun:_ZNK5TROOT9LoadClassEPKcb
   fun:_ZN6TClass8GetClassEPKcbb
   fun:_ZNK5genie10AlgFactory20InstantiateAlgorithmESsSs
   fun:_ZNK5genie10AlgFactory14AdoptAlgorithmESsSs
   fun:_ZN5genie10GEVGDriver24BuildInteractionSelectorEv
   fun:_ZN5genie10GEVGDriver9ConfigureERKNS_12InitialStateE
   fun:_ZN5genie10GMCJDriver26PopulateEventGenDriverPoolEv
   fun:_ZN5genie10GMCJDriver9ConfigureEb
   fun:_Z31GenerateEventsUsingFluxOrTgtMixv
   fun:main
}
{
   <insert a suppression name here>
   Memcheck:Leak
   fun:_vgrZU_libcZdsoZa_malloc
   obj:/usr/lib64/libxml2.so.2.6.26
   fun:xmlSAX2StartElementNs
   obj:/usr/lib64/libxml2.so.2.6.26
   fun:xmlParseElement
   fun:xmlParseContent
   fun:xmlParseElement
   fun:xmlParseContent
   fun:xmlParseElement
   fun:xmlParseDocument
   fun:xmlSAXParseFileWithData
   fun:_ZN5genie13AlgConfigPool14LoadRegistriesESsSsSs
   fun:_ZN5genie13AlgConfigPool19LoadSingleAlgConfigESsSs
   fun:_ZN5genie13AlgConfigPool13LoadAlgConfigEv
   fun:_ZN5genie13AlgConfigPoolC1Ev
   fun:_ZN5genie13AlgConfigPool8InstanceEv
   fun:_ZN5genie10GMCJDriver7InitJobEv
   fun:_ZN5genie10GMCJDriverC1Ev
   fun:_Z31GenerateEventsUsingFluxOrTgtMixv
   fun:main
}
{
   <insert a suppression name here>
   Memcheck:Leak
   fun:_vgrZU_libstdcZpZpZa__Znwm
   fun:_ZN5TCint23CreateListOfBaseClassesEP6TClass
   fun:_ZN6TClass14GetListOfBasesEv
   fun:_ZN6TClass12GetBaseClassEPKS_
   fun:_ZNK6TClass12InheritsFromEPKS_
   fun:_ZNK6TClass8PropertyEv
   fun:_ZNK6TClass9IsForeignEv
   fun:_ZN6TClass13PostLoadCheckEv
   fun:_ZNK5TROOT9LoadClassEPKcb
   fun:_ZN6TClass8GetClassEPKcbb
   fun:_ZNK5genie10AlgFactory20InstantiateAlgorithmESsSs
   fun:_ZN5genie10AlgFactory12GetAlgorithmESsSs
   fun:_ZNK5genie9Algorithm6SubAlgERKSs
   fun:_ZN5genie11QPMDISPXSec10LoadConfigEv
   fun:_ZN5genie11QPMDISPXSec9ConfigureESs
   fun:_ZNK5genie10AlgFactory20InstantiateAlgorithmESsSs
   fun:_ZN5genie10AlgFactory12GetAlgorithmESsSs
   fun:_ZNK5genie9Algorithm6SubAlgERKSs
   fun:_ZN5genie14EventGenerator10LoadConfigEv
   fun:_ZN5genie14EventGenerator9ConfigureESs
   fun:_ZNK5genie10AlgFactory20InstantiateAlgorithmESsSs
   fun:_ZN5genie10AlgFactory12GetAlgorithmESsSs
   fun:_ZNK5genie9Algorithm6SubAlgERKSs
   fun:_ZN5genie27EventGeneratorListAssembler13LoadGeneratorEi
}
{
   <insert a suppression name here>
   Memcheck:Leak
   fun:_vgrZU_libcZdsoZa_malloc
   fun:xmlNewComment
   fun:xmlNewDocComment
   fun:xmlSAX2Comment
   fun:xmlParseComment
   fun:xmlParseContent
   fun:xmlParseElement
   fun:xmlParseDocument
   fun:xmlSAXParseFileWithData
   fun:_ZN5genie13AlgConfigPool14LoadRegistriesESsSsSs
   fun:_ZN5genie13AlgConfigPool19LoadSingleAlgConfigESsSs
   fun:_ZN5genie13AlgConfigPool13LoadAlgConfigEv
   fun:_ZN5genie13AlgConfigPoolC1Ev
   fun:_ZN5genie13AlgConfigPool8InstanceEv
   fun:_ZN5genie10GMCJDriver7InitJobEv
   fun:_ZN5genie10GMCJDriverC1Ev
   fun:_Z31GenerateEventsUsingFluxOrTgtMixv
   fun:main
}
{
   <insert a suppression name here>
   Memcheck:Leak
   fun:_vgrZU_libstdcZpZpZa__Znam
   fun:_Z41__static_initialization_and_destruction_0ii
   obj:/minerva/app/users/perdue/GENIE/support/root/lib/libGraf.so
   obj:/minerva/app/users/perdue/GENIE/support/root/lib/libGraf.so
   obj:*
   obj:*
   obj:*
   obj:*
   obj:*
   obj:*
   fun:_vgrZU_libstdcZpZpZa__Znam
   fun:_Z41__static_initialization_and_destruction_0ii
   obj:/minerva/app/users/perdue/GENIE/support/root/lib/libGraf.so
   obj:/minerva/app/users/perdue/GENIE/support/root/lib/libGraf.so
   obj:*
   obj:*
   obj:*
   obj:*
}
{
   <insert a suppression name here>
   Memcheck:Leak
   fun:_vgrZU_libstdcZpZpZa__Znwm
   fun:G__call_setup_funcs
   fun:G__main
   fun:G__init_cint
   fun:_ZN5TCint8ResetAllEv
   fun:_ZN5TCintC1EPKcS1_
   fun:_ZN5TROOTC1EPKcS1_PPFvvE
   fun:_ZN4ROOT7GetROOTEv
   fun:_Z41__static_initialization_and_destruction_0ii
   obj:/minerva/app/users/perdue/GENIE/support/root/lib/libCore.so
   obj:/minerva/app/users/perdue/GENIE/support/root/lib/libCore.so
   obj:*
   obj:*
   obj:*
   obj:*
   obj:*
   obj:*
   fun:_vgrZU_libcZdsoZa_malloc
   fun:G__search_tagname
   fun:G__get_linked_tagnum
   fun:G__get_linked_tagnum_fwd
   fun:G__cpp_setup_tagtableG__MetaUtils
   fun:G__cpp_setupG__MetaUtils
   fun:G__call_setup_funcs
}
{
   <insert a suppression name here>
   Memcheck:Leak
   fun:_vgrZU_libcZdsoZa_malloc
   fun:G__define
   fun:G__exec_statement
   fun:G__loadfile
   fun:G__include_file
   fun:G__exec_statement
   fun:G__exec_tempfile_core
   fun:G__exec_tempfile_fp
   fun:G__process_cmd
   fun:_ZN5TCint11ProcessLineEPKcPN12TInterpreter10EErrorCodeE
   fun:_ZN5TCintC1EPKcS1_
   fun:_ZN5TROOTC1EPKcS1_PPFvvE
   fun:_ZN4ROOT7GetROOTEv
   fun:_Z41__static_initialization_and_destruction_0ii
   obj:/minerva/app/users/perdue/GENIE/support/root/lib/libCore.so
   obj:/minerva/app/users/perdue/GENIE/support/root/lib/libCore.so
   obj:*
   obj:*
   obj:*
   obj:*
   obj:*
   obj:*
   fun:_vgrZU_libstdcZpZpZa__Znam
   fun:G__defined_tagname
}
{
   <insert a suppression name here>
   Memcheck:Leak
   fun:_vgrZU_libstdcZpZpZa__Znam
   fun:G__defined_tagname
   fun:G__istypename
   fun:_Z18G__iscastexpr_bodyPKci
   fun:G__getexpr
   fun:G__getfunction
   fun:G__getitem
   fun:G__getexpr
   fun:G__getexpr
   fun:G__set_stdio
   fun:G__main
   fun:G__init_cint
   fun:_ZN5TCint8ResetAllEv
   fun:_ZN5TCintC1EPKcS1_
   fun:_ZN5TROOTC1EPKcS1_PPFvvE
   fun:_ZN4ROOT7GetROOTEv
   fun:_Z41__static_initialization_and_destruction_0ii
   obj:/minerva/app/users/perdue/GENIE/support/root/lib/libCore.so
   obj:/minerva/app/users/perdue/GENIE/support/root/lib/libCore.so
   obj:*
   obj:*
   obj:*
   obj:*
   obj:*
}
{
   <insert a suppression name here>
   Memcheck:Leak
   fun:_vgrZU_libstdcZpZpZa__Znam
   fun:G__getexpr
   fun:G__set_stdio
   fun:G__main
   fun:G__init_cint
   fun:_ZN5TCint8ResetAllEv
   fun:_ZN5TCintC1EPKcS1_
   fun:_ZN5TROOTC1EPKcS1_PPFvvE
   fun:_ZN4ROOT7GetROOTEv
   fun:_Z41__static_initialization_and_destruction_0ii
   obj:/minerva/app/users/perdue/GENIE/support/root/lib/libCore.so
   obj:/minerva/app/users/perdue/GENIE/support/root/lib/libCore.so
   obj:*
   obj:*
   obj:*
   obj:*
}
{
   <insert a suppression name here>
   Memcheck:Leak
   fun:_vgrZU_libstdcZpZpZa__Znam
   fun:_ZN13TStreamerInfo7CompileEv
   fun:_ZN13TStreamerInfo5BuildEv
   fun:_ZN11TBufferFile16WriteClassBufferEPK6TClassPv
   fun:_ZN15TStreamerString8StreamerER7TBuffer
   fun:_ZN11TBufferFile16WriteObjectClassEPKvPK6TClass
   fun:_ZN11TBufferFile14WriteObjectAnyEPKvPK6TClass
   fun:_ZN9TObjArray8StreamerER7TBuffer
   fun:_ZN11TBufferFile16WriteObjectClassEPKvPK6TClass
   fun:_ZN11TBufferFile14WriteObjectAnyEPKvPK6TClass
   fun:_ZlsI9TObjArrayER7TBufferS2_PKT_
   fun:_ZN13TStreamerInfo8StreamerER7TBuffer
   fun:_ZN11TBufferFile16WriteObjectClassEPKvPK6TClass
   fun:_ZN11TBufferFile14WriteObjectAnyEPKvPK6TClass
   fun:_ZN5TList8StreamerER7TBuffer
   fun:_ZN4TKeyC1EPK7TObjectPKciP10TDirectory
   fun:_ZN5TFile17WriteStreamerInfoEv
   fun:_ZN5TFile5CloseEPKc
   fun:_Z13TH1FluxDriverv
   fun:_Z10FluxDriverv
   fun:_Z31GenerateEventsUsingFluxOrTgtMixv
   fun:main
}
{
   <insert a suppression name here>
   Memcheck:Leak
   fun:_vgrZU_libstdcZpZpZa__Znam
   fun:_ZN13TStreamerInfo7CompileEv
   fun:_ZN13TStreamerInfo5BuildEv
   fun:_ZNK6TClass15GetStreamerInfoEi
   fun:_ZN13TStreamerInfo5BuildEv
   fun:_ZNK6TClass15GetStreamerInfoEi
   fun:_ZN13TStreamerInfo5BuildEv
   fun:_ZN11TBufferFile16WriteClassBufferEPK6TClassPv
   fun:_ZN4TKeyC1EPK7TObjectPKciP10TDirectory
   fun:_ZN5TFile9CreateKeyEP10TDirectoryPK7TObjectPKci
   fun:_ZN14TDirectoryFile12WriteTObjectEPK7TObjectPKcS4_i
   fun:_ZNK7TObject5WriteEPKcii
   fun:_Z13TH1FluxDriverv
   fun:_Z10FluxDriverv
   fun:_Z31GenerateEventsUsingFluxOrTgtMixv
   fun:main
}
{
   <insert a suppression name here>
   Memcheck:Leak
   fun:_vgrZU_libstdcZpZpZa__Znam
   fun:_Z6StrDupPKc
   fun:_ZN11TUnixSystem14ExpandPathNameEPKc
   fun:_ZN5genie5utils3xml14GetXMLFilePathESs
   fun:_ZN5genie13AlgConfigPool13LoadAlgConfigEv
   fun:_ZN5genie13AlgConfigPoolC1Ev
   fun:_ZN5genie13AlgConfigPool8InstanceEv
   fun:_ZN5genie10GMCJDriver7InitJobEv
   fun:_ZN5genie10GMCJDriverC1Ev
   fun:_Z31GenerateEventsUsingFluxOrTgtMixv
   fun:main
}
{
   <insert a suppression name here>
   Memcheck:Leak
   fun:_vgrZU_libcZdsoZa_malloc
   fun:G__search_tagname
   fun:G__set_class_autoloading_table
   fun:_ZN5TCint14LoadLibraryMapEPKc
   fun:_ZN7TSystem4LoadEPKcS1_b
   fun:_ZN5TROOT9LoadClassEPKcS1_b
   fun:_ZN18TVirtualTreePlayer10TreePlayerEP5TTree
   fun:_ZN5TTree9GetPlayerEv
   fun:_ZN5TTree4DrawEPKcS1_S1_xx
   fun:_ZN5genie6Spline12LoadFromTreeEP5TTreeSsSs
   fun:_ZN5genie6SplineC1EP5TTreeSsSs
   fun:_ZN5genie14INukeHadroData17LoadCrossSectionsEv
   fun:_ZN5genie14INukeHadroDataC1Ev
   fun:_ZN5genie14INukeHadroData8InstanceEv
   fun:_ZN5genie11HAIntranuke10LoadConfigEv
   fun:_ZN5genie9Intranuke9ConfigureESs
   fun:_ZNK5genie10AlgFactory20InstantiateAlgorithmESsSs
   fun:_ZN5genie10AlgFactory12GetAlgorithmESsSs
   fun:_ZNK5genie9Algorithm6SubAlgERKSs
   fun:_ZN5genie17HadronTransporter10LoadConfigEv
   fun:_ZN5genie17HadronTransporter9ConfigureESs
   fun:_ZNK5genie10AlgFactory20InstantiateAlgorithmESsSs
   fun:_ZN5genie10AlgFactory12GetAlgorithmESsSs
   fun:_ZNK5genie9Algorithm6SubAlgERKSs
}
{
   <insert a suppression name here>
   Memcheck:Leak
   fun:_vgrZU_libstdcZpZpZa__Znam
   fun:_ZN13TStreamerInfo7CompileEv
   fun:_ZN13TStreamerInfo5BuildEv
   fun:_ZN11TBufferFile16WriteClassBufferEPK6TClassPv
   fun:_ZN5TAxis8StreamerER7TBuffer
   fun:_ZN11TBufferFile14WriteFastArrayEPvPK6TClassiP15TMemberStreamer
   fun:_ZN13TStreamerInfo14WriteBufferAuxIPPcEEiR7TBufferRKT_iiii
   fun:_ZN20TStreamerInfoActions18GenericWriteActionER7TBufferPvPKNS_14TConfigurationE
   fun:_ZN11TBufferFile13ApplySequenceERKN20TStreamerInfoActions15TActionSequenceEPv
   fun:_ZN11TBufferFile16WriteClassBufferEPK6TClassPv
   fun:_ZN3TH18StreamerER7TBuffer
   fun:_ZN13TStreamerBase11WriteBufferER7TBufferPc
   fun:_ZN13TStreamerInfo14WriteBufferAuxIPPcEEiR7TBufferRKT_iiii
   fun:_ZN20TStreamerInfoActions18GenericWriteActionER7TBufferPvPKNS_14TConfigurationE
   fun:_ZN11TBufferFile13ApplySequenceERKN20TStreamerInfoActions15TActionSequenceEPv
   fun:_ZN11TBufferFile16WriteClassBufferEPK6TClassPv
   fun:_ZN4TKeyC1EPK7TObjectPKciP10TDirectory
   fun:_ZN5TFile9CreateKeyEP10TDirectoryPK7TObjectPKci
   fun:_ZN14TDirectoryFile12WriteTObjectEPK7TObjectPKcS4_i
   fun:_ZNK7TObject5WriteEPKcii
   fun:_Z13TH1FluxDriverv
   fun:_Z10FluxDriverv
   fun:_Z31GenerateEventsUsingFluxOrTgtMixv
   fun:main
}
{
   <insert a suppression name here>
   Memcheck:Leak
   fun:_vgrZU_libcZdsoZa_malloc
   fun:G__set_class_autoloading_table
   fun:_ZN5TCint14LoadLibraryMapEPKc
   fun:_ZN7TSystem4LoadEPKcS1_b
   fun:_ZN5TROOT9LoadClassEPKcS1_b
   fun:_ZN18TVirtualTreePlayer10TreePlayerEP5TTree
   fun:_ZN5TTree9GetPlayerEv
   fun:_ZN5TTree4DrawEPKcS1_S1_xx
   fun:_ZN5genie6Spline12LoadFromTreeEP5TTreeSsSs
   fun:_ZN5genie6SplineC1EP5TTreeSsSs
   fun:_ZN5genie14INukeHadroData17LoadCrossSectionsEv
   fun:_ZN5genie14INukeHadroDataC1Ev
   fun:_ZN5genie14INukeHadroData8InstanceEv
   fun:_ZN5genie11HAIntranuke10LoadConfigEv
   fun:_ZN5genie9Intranuke9ConfigureESs
   fun:_ZNK5genie10AlgFactory20InstantiateAlgorithmESsSs
   fun:_ZN5genie10AlgFactory12GetAlgorithmESsSs
   fun:_ZNK5genie9Algorithm6SubAlgERKSs
   fun:_ZN5genie17HadronTransporter10LoadConfigEv
   fun:_ZN5genie17HadronTransporter9ConfigureESs
   fun:_ZNK5genie10AlgFactory20InstantiateAlgorithmESsSs
   fun:_ZN5genie10AlgFactory12GetAlgorithmESsSs
   fun:_ZNK5genie9Algorithm6SubAlgERKSs
   fun:_ZN5genie14EventGenerator10LoadConfigEv
}
{
   <insert a suppression name here>
   Memcheck:Leak
   fun:_vgrZU_libcZdsoZa_malloc
   fun:xmlNewNode
   fun:xmlNewDocNode
   fun:xmlSAX2StartElementNs
   obj:/usr/lib64/libxml2.so.2.6.26
   fun:xmlParseElement
   fun:xmlParseContent
   fun:xmlParseElement
   fun:xmlParseDocument
   fun:xmlSAXParseFileWithData
   fun:_ZN5genie13AlgConfigPool14LoadRegistriesESsSsSs
   fun:_ZN5genie13AlgConfigPool19LoadSingleAlgConfigESsSs
   fun:_ZN5genie13AlgConfigPool13LoadAlgConfigEv
   fun:_ZN5genie13AlgConfigPoolC1Ev
   fun:_ZN5genie13AlgConfigPool8InstanceEv
   fun:_ZN5genie10GMCJDriver7InitJobEv
   fun:_ZN5genie10GMCJDriverC1Ev
   fun:_Z31GenerateEventsUsingFluxOrTgtMixv
   fun:main
}
{
   <insert a suppression name here>
   Memcheck:Leak
   fun:_vgrZU_libcZdsoZa_malloc
   fun:_Z18G__make_ifunctableR18G__FastAllocString
   fun:G__define_var
   fun:G__exec_statement
   fun:G__define_struct
   fun:G__exec_statement
   fun:G__loadfile
   fun:G__include_file
   fun:G__exec_statement
   fun:G__exec_tempfile_core
   fun:G__exec_tempfile_fp
   fun:G__process_cmd
   fun:_ZN5TCint11ProcessLineEPKcPN12TInterpreter10EErrorCodeE
   fun:_ZN5TCintC1EPKcS1_
   fun:_ZN5TROOTC1EPKcS1_PPFvvE
   fun:_ZN4ROOT7GetROOTEv
   fun:_Z41__static_initialization_and_destruction_0ii
   obj:/minerva/app/users/perdue/GENIE/support/root/lib/libCore.so
   obj:/minerva/app/users/perdue/GENIE/support/root/lib/libCore.so
   obj:*
   obj:*
   obj:*
   obj:*
   obj:*
}
{
   <insert a suppression name here>
   Memcheck:Leak
   fun:_vgrZU_libstdcZpZpZa__Znwm
   fun:_Z23GetCollectionReadActionIN20TStreamerInfoActions15VectorPtrLooperEENS0_17TConfiguredActionEP20TVirtualStreamerInfoP16TStreamerElementiji
   fun:_ZN13TStreamerInfo13AddReadActionEiP16TStreamerElement
   fun:_ZN13TStreamerInfo7CompileEv
   fun:_ZN13TStreamerInfo5BuildEv
   fun:_ZN11TBufferFile16WriteClassBufferEPK6TClassPv
   fun:_ZN5TAxis8StreamerER7TBuffer
   fun:_ZN11TBufferFile14WriteFastArrayEPvPK6TClassiP15TMemberStreamer
   fun:_ZN13TStreamerInfo14WriteBufferAuxIPPcEEiR7TBufferRKT_iiii
   fun:_ZN20TStreamerInfoActions18GenericWriteActionER7TBufferPvPKNS_14TConfigurationE
   fun:_ZN11TBufferFile13ApplySequenceERKN20TStreamerInfoActions15TActionSequenceEPv
   fun:_ZN11TBufferFile16WriteClassBufferEPK6TClassPv
   fun:_ZN3TH18StreamerER7TBuffer
   fun:_ZN13TStreamerBase11WriteBufferER7TBufferPc
   fun:_ZN13TStreamerInfo14WriteBufferAuxIPPcEEiR7TBufferRKT_iiii
   fun:_ZN20TStreamerInfoActions18GenericWriteActionER7TBufferPvPKNS_14TConfigurationE
   fun:_ZN11TBufferFile13ApplySequenceERKN20TStreamerInfoActions15TActionSequenceEPv
   fun:_ZN11TBufferFile16WriteClassBufferEPK6TClassPv
   fun:_ZN4TKeyC1EPK7TObjectPKciP10TDirectory
   fun:_ZN5TFile9CreateKeyEP10TDirectoryPK7TObjectPKci
   fun:_ZN14TDirectoryFile12WriteTObjectEPK7TObjectPKcS4_i
   fun:_ZNK7TObject5WriteEPKcii
   fun:_Z13TH1FluxDriverv
   fun:_Z10FluxDriverv
}
{
   <insert a suppression name here>
   Memcheck:Leak
   fun:_vgrZU_libcZdsoZa_calloc
   fun:G__malloc
   fun:_Z16G__alloc_var_refIiPFl8G__valueEEviT0_PKcP12G__var_arrayiRS0_
   fun:_Z16G__allocvariable8G__valuePS_P12G__var_arrayS2_iiPKcPciRN4Cint19G__DataMemberHandleE
   fun:_Z14G__letvariableR18G__FastAllocString8G__valueP12G__var_arrayS3_RN4Cint19G__DataMemberHandleE
   fun:_Z14G__letvariableR18G__FastAllocString8G__valueP12G__var_arrayS3_
   fun:G__getexpr
   fun:G__memvar_setup
   fun:_Z20G__cpp_setup_global1v
   fun:G__cpp_setup_globalG__TextInput
   fun:G__cpp_setupG__TextInput
   fun:G__call_setup_funcs
   fun:G__main
   fun:G__init_cint
   fun:_ZN5TCint8ResetAllEv
   fun:_ZN5TCintC1EPKcS1_
   fun:_ZN5TROOTC1EPKcS1_PPFvvE
   fun:_ZN4ROOT7GetROOTEv
   fun:_Z41__static_initialization_and_destruction_0ii
   obj:/minerva/app/users/perdue/GENIE/support/root/lib/libCore.so
   obj:/minerva/app/users/perdue/GENIE/support/root/lib/libCore.so
   obj:*
   obj:*
   obj:*
}
{
   <insert a suppression name here>
   Memcheck:Leak
   fun:_vgrZU_libstdcZpZpZa__Znwm
   fun:_ZN13TStreamerInfo13AddReadActionEiP16TStreamerElement
   fun:_ZN13TStreamerInfo7CompileEv
   fun:_ZN13TStreamerInfo5BuildEv
   fun:_ZN11TBufferFile16WriteClassBufferEPK6TClassPv
   fun:_ZN5TAxis8StreamerER7TBuffer
   fun:_ZN11TBufferFile14WriteFastArrayEPvPK6TClassiP15TMemberStreamer
   fun:_ZN13TStreamerInfo14WriteBufferAuxIPPcEEiR7TBufferRKT_iiii
   fun:_ZN20TStreamerInfoActions18GenericWriteActionER7TBufferPvPKNS_14TConfigurationE
   fun:_ZN11TBufferFile13ApplySequenceERKN20TStreamerInfoActions15TActionSequenceEPv
   fun:_ZN11TBufferFile16WriteClassBufferEPK6TClassPv
   fun:_ZN3TH18StreamerER7TBuffer
   fun:_ZN13TStreamerBase11WriteBufferER7TBufferPc
   fun:_ZN13TStreamerInfo14WriteBufferAuxIPPcEEiR7TBufferRKT_iiii
   fun:_ZN20TStreamerInfoActions18GenericWriteActionER7TBufferPvPKNS_14TConfigurationE
   fun:_ZN11TBufferFile13ApplySequenceERKN20TStreamerInfoActions15TActionSequenceEPv
   fun:_ZN11TBufferFile16WriteClassBufferEPK6TClassPv
   fun:_ZN4TKeyC1EPK7TObjectPKciP10TDirectory
   fun:_ZN5TFile9CreateKeyEP10TDirectoryPK7TObjectPKci
   fun:_ZN14TDirectoryFile12WriteTObjectEPK7TObjectPKcS4_i
   fun:_ZNK7TObject5WriteEPKcii
   fun:_Z13TH1FluxDriverv
   fun:_Z10FluxDriverv
   fun:_Z31GenerateEventsUsingFluxOrTgtMixv
}
{
   <insert a suppression name here>
   Memcheck:Leak
   fun:_vgrZU_libstdcZpZpZa__Znam
   fun:G__parse_parameter_link
   fun:G__memfunc_setup_imp
   fun:_Z18G__cpp_setup_func2v
   fun:G__cpp_setup_funcG__TextInput
   fun:G__cpp_setupG__TextInput
   fun:G__call_setup_funcs
   fun:G__main
   fun:G__init_cint
   fun:_ZN5TCint8ResetAllEv
   fun:_ZN5TCintC1EPKcS1_
   fun:_ZN5TROOTC1EPKcS1_PPFvvE
   fun:_ZN4ROOT7GetROOTEv
   fun:_Z41__static_initialization_and_destruction_0ii
   obj:/minerva/app/users/perdue/GENIE/support/root/lib/libCore.so
   obj:/minerva/app/users/perdue/GENIE/support/root/lib/libCore.so
   obj:*
   obj:*
   obj:*
   obj:*
   obj:*
   obj:*
   fun:_vgrZU_libstdcZpZpZa__Znam
   fun:G__parse_parameter_link
}
{
   <insert a suppression name here>
   Memcheck:Leak
   fun:_vgrZU_libstdcZpZpZa__Znwm
   fun:_ZN5TCint12SetClassInfoEP6TClassb
   fun:_ZN6TClass4InitEPKcsPKSt9type_infoP16TVirtualIsAProxyPFvPvR16TMemberInspectorES1_S1_iib
   fun:_ZN6TClassC1EPKcsRKSt9type_infoP16TVirtualIsAProxyPFvPvR16TMemberInspectorES1_S1_iib
   fun:_ZN4ROOT11CreateClassEPKcsRKSt9type_infoP16TVirtualIsAProxyPFvPvR16TMemberInspectorES1_S1_ii
   fun:_ZNK4ROOT20TDefaultInitBehavior11CreateClassEPKcsRKSt9type_infoP16TVirtualIsAProxyPFvPvR16TMemberInspectorES2_S2_ii
   fun:_ZN4ROOT17TGenericClassInfo8GetClassEv
   fun:_ZN8TAttFill10DictionaryEv
   fun:_ZNK5TROOT9LoadClassEPKcb
   fun:_ZN6TClass8GetClassEPKcbb
   fun:_ZN10TBaseClass15GetClassPointerEb
   fun:_ZN6TClass12GetBaseClassEPKS_
   fun:_ZN6TClass12GetBaseClassEPKS_
   fun:_ZNK6TClass12InheritsFromEPKS_
   fun:_ZN14TBuildRealData7InspectEP6TClassPKcS3_PKv
   fun:_ZN5TAxis11ShowMembersER16TMemberInspector
   fun:_ZN3TH111ShowMembersER16TMemberInspector
   fun:_ZN4TH1D11ShowMembersER16TMemberInspector
   fun:_ZNK6TClass15CallShowMembersEPvR16TMemberInspectori
   fun:_ZN6TClass13BuildRealDataEPvb
   fun:_ZN11TBufferFile16WriteClassBufferEPK6TClassPv
   fun:_ZN4TKeyC1EPK7TObjectPKciP10TDirectory
   fun:_ZN5TFile9CreateKeyEP10TDirectoryPK7TObjectPKci
   fun:_ZN14TDirectoryFile12WriteTObjectEPK7TObjectPKcS4_i
}
{
   <insert a suppression name here>
   Memcheck:Leak
   fun:_vgrZU_libstdcZpZpZa__Znwm
   fun:_ZN13TStreamerInfo14AddWriteActionEiP16TStreamerElement
   fun:_ZN13TStreamerInfo7CompileEv
   fun:_ZN13TStreamerInfo5BuildEv
   fun:_ZNK6TClass15GetStreamerInfoEi
   fun:_ZN13TStreamerInfo5BuildEv
   fun:_ZN11TBufferFile16WriteClassBufferEPK6TClassPv
   fun:_ZN14TBranchElement8StreamerER7TBuffer
   fun:_ZN11TBufferFile16WriteObjectClassEPKvPK6TClass
   fun:_ZN11TBufferFile14WriteObjectAnyEPKvPK6TClass
   fun:_ZN9TObjArray8StreamerER7TBuffer
   fun:_ZN11TBufferFile14WriteFastArrayEPvPK6TClassiP15TMemberStreamer
   fun:_ZN13TStreamerInfo14WriteBufferAuxIPPcEEiR7TBufferRKT_iiii
   fun:_ZN20TStreamerInfoActions18GenericWriteActionER7TBufferPvPKNS_14TConfigurationE
   fun:_ZN11TBufferFile13ApplySequenceERKN20TStreamerInfoActions15TActionSequenceEPv
   fun:_ZN11TBufferFile16WriteClassBufferEPK6TClassPv
   fun:_ZN5TTree8StreamerER7TBuffer
   fun:_ZN4TKeyC1EPK7TObjectPKciP10TDirectory
   fun:_ZN5TFile9CreateKeyEP10TDirectoryPK7TObjectPKci
   fun:_ZN14TDirectoryFile12WriteTObjectEPK7TObjectPKcS4_i
   fun:_ZNK7TObject5WriteEPKcii
   fun:_ZN14TDirectoryFile5WriteEPKcii
   fun:_ZN5TFile5WriteEPKcii
   fun:_ZN5genie9NtpWriter4SaveEv
}
{
   <insert a suppression name here>
   Memcheck:Leak
   fun:_vgrZU_libstdcZpZpZa__Znwm
   fun:_ZNSt8_Rb_treeISsSt4pairIKSsP6TClassESt10_Select1stIS4_ESt4lessISsESaIS4_EE9_M_insertEPSt18_Rb_tree_node_baseSC_RKS4_
   fun:_ZNSt8_Rb_treeISsSt4pairIKSsP6TClassESt10_Select1stIS4_ESt4lessISsESaIS4_EE13insert_uniqueESt17_Rb_tree_iteratorIS4_ERKS4_
   fun:_ZN6TClass8AddClassEPS_
   fun:_ZN6TClass4InitEPKcsPKSt9type_infoP16TVirtualIsAProxyPFvPvR16TMemberInspectorES1_S1_iib
   fun:_ZN6TClassC1EPKcsRKSt9type_infoP16TVirtualIsAProxyPFvPvR16TMemberInspectorES1_S1_iib
   fun:_ZN4ROOT11CreateClassEPKcsRKSt9type_infoP16TVirtualIsAProxyPFvPvR16TMemberInspectorES1_S1_ii
   fun:_ZNK4ROOT20TDefaultInitBehavior11CreateClassEPKcsRKSt9type_infoP16TVirtualIsAProxyPFvPvR16TMemberInspectorES2_S2_ii
   fun:_ZN4ROOT17TGenericClassInfo8GetClassEv
   fun:_ZN4ROOT39geniecLcLEventRecordVisitorI_DictionaryEv
   fun:_ZNK5TROOT9LoadClassEPKcb
   fun:_ZN6TClass8GetClassEPKcbb
   fun:_ZN10TBaseClass15GetClassPointerEb
   fun:_ZN6TClass12GetBaseClassEPKS_
   fun:_ZNK6TClass12InheritsFromEPKS_
   fun:_ZNK6TClass8PropertyEv
   fun:_ZNK6TClass9IsForeignEv
   fun:_ZN6TClass13PostLoadCheckEv
   fun:_ZNK5TROOT9LoadClassEPKcb
   fun:_ZN6TClass8GetClassEPKcbb
   fun:_ZN10TBaseClass15GetClassPointerEb
   fun:_ZN6TClass12GetBaseClassEPKS_
   fun:_ZNK6TClass12InheritsFromEPKS_
   fun:_ZNK6TClass8PropertyEv
}
{
   <insert a suppression name here>
   Memcheck:Leak
   fun:_vgrZU_libstdcZpZpZa__Znwm
   fun:_ZNSs4_Rep9_S_createEmmRKSaIcE
   obj:/usr/lib64/libstdc++.so.6.0.8
   fun:_ZNSsC1EPKcRKSaIcE
   fun:_ZN6TClass8AddClassEPS_
   fun:_ZN6TClass4InitEPKcsPKSt9type_infoP16TVirtualIsAProxyPFvPvR16TMemberInspectorES1_S1_iib
   fun:_ZN6TClassC1EPKcsRKSt9type_infoP16TVirtualIsAProxyPFvPvR16TMemberInspectorES1_S1_iib
   fun:_ZN4ROOT11CreateClassEPKcsRKSt9type_infoP16TVirtualIsAProxyPFvPvR16TMemberInspectorES1_S1_ii
   fun:_ZNK4ROOT20TDefaultInitBehavior11CreateClassEPKcsRKSt9type_infoP16TVirtualIsAProxyPFvPvR16TMemberInspectorES2_S2_ii
   fun:_ZN4ROOT17TGenericClassInfo8GetClassEv
   fun:_ZN4ROOT39geniecLcLEventRecordVisitorI_DictionaryEv
   fun:_ZNK5TROOT9LoadClassEPKcb
   fun:_ZN6TClass8GetClassEPKcbb
   fun:_ZN10TBaseClass15GetClassPointerEb
   fun:_ZN6TClass12GetBaseClassEPKS_
   fun:_ZNK6TClass12InheritsFromEPKS_
   fun:_ZNK6TClass8PropertyEv
   fun:_ZNK6TClass9IsForeignEv
   fun:_ZN6TClass13PostLoadCheckEv
   fun:_ZNK5TROOT9LoadClassEPKcb
   fun:_ZN6TClass8GetClassEPKcbb
   fun:_ZN10TBaseClass15GetClassPointerEb
   fun:_ZN6TClass12GetBaseClassEPKS_
   fun:_ZNK6TClass12InheritsFromEPKS_
}
{
   <insert a suppression name here>
   Memcheck:Leak
   fun:_vgrZU_libstdcZpZpZa__Znwm
   fun:G__tagtable_setup
   fun:G__cpp_setup_tagtableG__TreePlayer
   fun:G__cpp_setupG__TreePlayer
   fun:G__call_setup_funcs
   fun:_Z41__static_initialization_and_destruction_0ii
   obj:/minerva/app/users/perdue/GENIE/support/root/lib/libTreePlayer.so
   obj:/minerva/app/users/perdue/GENIE/support/root/lib/libTreePlayer.so
   obj:*
   obj:*
   obj:*
   obj:*
   obj:*
   obj:*
   fun:_vgrZU_libcZdsoZa_malloc
   fun:G__search_tagname
   fun:G__get_linked_tagnum
   fun:G__get_linked_tagnum_fwd
   fun:G__cpp_setup_tagtableG__TreePlayer
   fun:G__cpp_setupG__TreePlayer
   fun:G__call_setup_funcs
   fun:_Z41__static_initialization_and_destruction_0ii
   obj:/minerva/app/users/perdue/GENIE/support/root/lib/libTreePlayer.so
   obj:/minerva/app/users/perdue/GENIE/support/root/lib/libTreePlayer.so
}
{
   <insert a suppression name here>
   Memcheck:Leak
   fun:_vgrZU_libstdcZpZpZa__Znwm
   fun:_ZNSt6vectorIN20TStreamerInfoActions17TConfiguredActionESaIS1_EE7reserveEm
   fun:_ZN13TStreamerInfo7CompileEv
   fun:_ZN13TStreamerInfo5BuildEv
   fun:_ZNK6TClass15GetStreamerInfoEi
   fun:_ZN13TStreamerInfo5BuildEv
   fun:_ZNK6TClass15GetStreamerInfoEi
   fun:_ZN11TBufferFile14WriteFastArrayEPPvPK6TClassibP15TMemberStreamer
   fun:_ZN13TStreamerInfo14WriteBufferAuxIPPcEEiR7TBufferRKT_iiii
   fun:_ZN20TStreamerInfoActions18GenericWriteActionER7TBufferPvPKNS_14TConfigurationE
   fun:_ZN11TBufferFile13ApplySequenceERKN20TStreamerInfoActions15TActionSequenceEPv
   fun:_ZN11TBufferFile16WriteClassBufferEPK6TClassPv
   fun:_ZN5TAxis8StreamerER7TBuffer
   fun:_ZN11TBufferFile14WriteFastArrayEPvPK6TClassiP15TMemberStreamer
   fun:_ZN13TStreamerInfo14WriteBufferAuxIPPcEEiR7TBufferRKT_iiii
   fun:_ZN20TStreamerInfoActions18GenericWriteActionER7TBufferPvPKNS_14TConfigurationE
   fun:_ZN11TBufferFile13ApplySequenceERKN20TStreamerInfoActions15TActionSequenceEPv
   fun:_ZN11TBufferFile16WriteClassBufferEPK6TClassPv
   fun:_ZN3TH18StreamerER7TBuffer
   fun:_ZN13TStreamerBase11WriteBufferER7TBufferPc
   fun:_ZN13TStreamerInfo14WriteBufferAuxIPPcEEiR7TBufferRKT_iiii
   fun:_ZN20TStreamerInfoActions18GenericWriteActionER7TBufferPvPKNS_14TConfigurationE
   fun:_ZN11TBufferFile13ApplySequenceERKN20TStreamerInfoActions15TActionSequenceEPv
   fun:_ZN11TBufferFile16WriteClassBufferEPK6TClassPv
}
{
   <insert a suppression name here>
   Memcheck:Leak
   fun:_vgrZU_libstdcZpZpZa__Znam
   fun:_ZN7TArrayI3SetEiPKi
   fun:_ZN13TDecayChannelC1EiidiPi
   fun:_ZN12TParticlePDG15AddDecayChannelEidiPi
   fun:_ZN12TDatabasePDG12ReadPDGTableEPKc
   fun:_ZN5genie10PDGLibrary9LoadDBaseEv
   fun:_ZN5genie10PDGLibraryC1Ev
   fun:_ZN5genie10PDGLibrary8InstanceEv
   fun:_ZNK5genie11PDGCodeList18ExistsInPDGLibraryEi
   fun:_ZNK5genie11PDGCodeList12CheckPDGCodeEi
   fun:_ZN5genie11PDGCodeList9push_backEi
   fun:_ZN5genie4flux14GCylindTH1Flux17AddEnergySpectrumEiP4TH1D
   fun:_Z13TH1FluxDriverv
   fun:_Z10FluxDriverv
   fun:_Z31GenerateEventsUsingFluxOrTgtMixv
   fun:main
}
{
   <insert a suppression name here>
   Memcheck:Leak
   fun:_vgrZU_libstdcZpZpZa__Znwm
   fun:_ZN5TCint19CreateListOfMethodsEP6TClass
   fun:_ZN6TClass16GetListOfMethodsEv
   fun:_ZN6TClass12GetMethodAnyEPKc
   fun:_ZN13TStreamerBase4InitEP7TObject
   fun:_ZN13TStreamerBaseC1EPKcS1_i
   fun:_ZN13TStreamerInfo5BuildEv
   fun:_ZNK6TClass15GetStreamerInfoEi
   fun:_ZN11TBufferFile14WriteFastArrayEPPvPK6TClassibP15TMemberStreamer
   fun:_ZN13TStreamerInfo14WriteBufferAuxIPPcEEiR7TBufferRKT_iiii
   fun:_ZN20TStreamerInfoActions18GenericWriteActionER7TBufferPvPKNS_14TConfigurationE
   fun:_ZN11TBufferFile13ApplySequenceERKN20TStreamerInfoActions15TActionSequenceEPv
   fun:_ZN11TBufferFile16WriteClassBufferEPK6TClassPv
   fun:_ZN5TAxis8StreamerER7TBuffer
   fun:_ZN11TBufferFile14WriteFastArrayEPvPK6TClassiP15TMemberStreamer
   fun:_ZN13TStreamerInfo14WriteBufferAuxIPPcEEiR7TBufferRKT_iiii
   fun:_ZN20TStreamerInfoActions18GenericWriteActionER7TBufferPvPKNS_14TConfigurationE
   fun:_ZN11TBufferFile13ApplySequenceERKN20TStreamerInfoActions15TActionSequenceEPv
   fun:_ZN11TBufferFile16WriteClassBufferEPK6TClassPv
   fun:_ZN3TH18StreamerER7TBuffer
   fun:_ZN13TStreamerBase11WriteBufferER7TBufferPc
   fun:_ZN13TStreamerInfo14WriteBufferAuxIPPcEEiR7TBufferRKT_iiii
   fun:_ZN20TStreamerInfoActions18GenericWriteActionER7TBufferPvPKNS_14TConfigurationE
   fun:_ZN11TBufferFile13ApplySequenceERKN20TStreamerInfoActions15TActionSequenceEPv
}
{
   <insert a suppression name here>
   Memcheck:Leak
   fun:_vgrZU_libcZdsoZa_malloc
   fun:xmlStrndup
   fun:xmlNewDoc
   fun:xmlSAX2StartDocument
   fun:xmlParseDocument
   fun:xmlSAXParseFileWithData
   fun:_ZN5genie13AlgConfigPool14LoadRegistriesESsSsSs
   fun:_ZN5genie13AlgConfigPool19LoadSingleAlgConfigESsSs
   fun:_ZN5genie13AlgConfigPool13LoadAlgConfigEv
   fun:_ZN5genie13AlgConfigPoolC1Ev
   fun:_ZN5genie13AlgConfigPool8InstanceEv
   fun:_ZN5genie10GMCJDriver7InitJobEv
   fun:_ZN5genie10GMCJDriverC1Ev
   fun:_Z31GenerateEventsUsingFluxOrTgtMixv
   fun:main
}
{
   <insert a suppression name here>
   Memcheck:Leak
   fun:_vgrZU_libstdcZpZpZa__Znwm
   fun:G__search_tagname
   fun:G__set_class_autoloading_table
   fun:_ZN5TCint14LoadLibraryMapEPKc
   fun:_ZN7TSystem4LoadEPKcS1_b
   fun:_ZN5TROOT9LoadClassEPKcS1_b
   fun:_ZN18TVirtualTreePlayer10TreePlayerEP5TTree
   fun:_ZN5TTree9GetPlayerEv
   fun:_ZN5TTree4DrawEPKcS1_S1_xx
   fun:_ZN5genie6Spline12LoadFromTreeEP5TTreeSsSs
   fun:_ZN5genie6SplineC1EP5TTreeSsSs
   fun:_ZN5genie14INukeHadroData17LoadCrossSectionsEv
   fun:_ZN5genie14INukeHadroDataC1Ev
   fun:_ZN5genie14INukeHadroData8InstanceEv
   fun:_ZN5genie11HAIntranuke10LoadConfigEv
   fun:_ZN5genie9Intranuke9ConfigureESs
   fun:_ZNK5genie10AlgFactory20InstantiateAlgorithmESsSs
   fun:_ZN5genie10AlgFactory12GetAlgorithmESsSs
   fun:_ZNK5genie9Algorithm6SubAlgERKSs
   fun:_ZN5genie17HadronTransporter10LoadConfigEv
   fun:_ZN5genie17HadronTransporter9ConfigureESs
   fun:_ZNK5genie10AlgFactory20InstantiateAlgorithmESsSs
   fun:_ZN5genie10AlgFactory12GetAlgorithmESsSs
   fun:_ZNK5genie9Algorithm6SubAlgERKSs
}
{
   <insert a suppression name here>
   Memcheck:Leak
   fun:_vgrZU_libstdcZpZpZa__Znam
   fun:_ZN8TStorage7ReAllocEPvmm
   fun:_ZN9TObjArray6ExpandEi
   fun:_ZN9TObjArray14AddAtAndExpandEP7TObjecti
   fun:_ZN9TObjArray3AddEP7TObject
   fun:_ZN12TParticlePDG15AddDecayChannelEidiPi
   fun:_ZN12TDatabasePDG12ReadPDGTableEPKc
   fun:_ZN5genie10PDGLibrary9LoadDBaseEv
   fun:_ZN5genie10PDGLibraryC1Ev
   fun:_ZN5genie10PDGLibrary8InstanceEv
   fun:_ZNK5genie11PDGCodeList18ExistsInPDGLibraryEi
   fun:_ZNK5genie11PDGCodeList12CheckPDGCodeEi
   fun:_ZN5genie11PDGCodeList9push_backEi
   fun:_ZN5genie4flux14GCylindTH1Flux17AddEnergySpectrumEiP4TH1D
   fun:_Z13TH1FluxDriverv
   fun:_Z10FluxDriverv
   fun:_Z31GenerateEventsUsingFluxOrTgtMixv
   fun:main
}
{
   <insert a suppression name here>
   Memcheck:Leak
   fun:_vgrZU_libstdcZpZpZa__Znwm
   fun:G__search_tagname
   fun:G__set_class_autoloading_table
   fun:_ZN5TCint14LoadLibraryMapEPKc
   fun:_ZN7TSystem4LoadEPKcS1_b
   fun:_ZN5TROOT9LoadClassEPKcS1_b
   fun:_ZN18TVirtualTreePlayer10TreePlayerEP5TTree
   fun:_ZN5TTree9GetPlayerEv
   fun:_ZN5TTree4DrawEPKcS1_S1_xx
   fun:_ZN5genie6Spline12LoadFromTreeEP5TTreeSsSs
   fun:_ZN5genie6SplineC1EP5TTreeSsSs
   fun:_ZN5genie14INukeHadroData17LoadCrossSectionsEv
   fun:_ZN5genie14INukeHadroDataC1Ev
   fun:_ZN5genie14INukeHadroData8InstanceEv
   fun:_ZN5genie11HAIntranuke10LoadConfigEv
   fun:_ZN5genie9Intranuke9ConfigureESs
   fun:_ZNK5genie10AlgFactory20InstantiateAlgorithmESsSs
   fun:_ZN5genie10AlgFactory12GetAlgorithmESsSs
   fun:_ZNK5genie9Algorithm6SubAlgERKSs
   fun:_ZN5genie17HadronTransporter10LoadConfigEv
   fun:_ZN5genie17HadronTransporter9ConfigureESs
   fun:_ZNK5genie10AlgFactory20InstantiateAlgorithmESsSs
   fun:_ZN5genie10AlgFactory12GetAlgorithmESsSs
   fun:_ZNK5genie9Algorithm6SubAlgERKSs
}
{
   <insert a suppression name here>
   Memcheck:Leak
   fun:_vgrZU_libcZdsoZa_malloc
   fun:G__search_tagname
   fun:G__set_class_autoloading_table
   fun:_ZN5TCint14LoadLibraryMapEPKc
   fun:_ZN7TSystem4LoadEPKcS1_b
   fun:_ZN5TROOT9LoadClassEPKcS1_b
   fun:_ZN18TVirtualTreePlayer10TreePlayerEP5TTree
   fun:_ZN5TTree9GetPlayerEv
   fun:_ZN5TTree4DrawEPKcS1_S1_xx
   fun:_ZN5genie6Spline12LoadFromTreeEP5TTreeSsSs
   fun:_ZN5genie6SplineC1EP5TTreeSsSs
   fun:_ZN5genie14INukeHadroData17LoadCrossSectionsEv
   fun:_ZN5genie14INukeHadroDataC1Ev
   fun:_ZN5genie14INukeHadroData8InstanceEv
   fun:_ZN5genie11HAIntranuke10LoadConfigEv
   fun:_ZN5genie9Intranuke9ConfigureESs
   fun:_ZNK5genie10AlgFactory20InstantiateAlgorithmESsSs
   fun:_ZN5genie10AlgFactory12GetAlgorithmESsSs
   fun:_ZNK5genie9Algorithm6SubAlgERKSs
   fun:_ZN5genie17HadronTransporter10LoadConfigEv
   fun:_ZN5genie17HadronTransporter9ConfigureESs
   fun:_ZNK5genie10AlgFactory20InstantiateAlgorithmESsSs
   fun:_ZN5genie10AlgFactory12GetAlgorithmESsSs
   fun:_ZNK5genie9Algorithm6SubAlgERKSs
}
{
   <insert a suppression name here>
   Memcheck:Leak
   fun:_vgrZU_libcZdsoZa_malloc
   fun:G__search_tagname
   fun:G__set_class_autoloading_table
   fun:_ZN5TCint14LoadLibraryMapEPKc
   fun:_ZN7TSystem4LoadEPKcS1_b
   fun:_ZN5TROOT9LoadClassEPKcS1_b
   fun:_ZN18TVirtualTreePlayer10TreePlayerEP5TTree
   fun:_ZN5TTree9GetPlayerEv
   fun:_ZN5TTree4DrawEPKcS1_S1_xx
   fun:_ZN5genie6Spline12LoadFromTreeEP5TTreeSsSs
   fun:_ZN5genie6SplineC1EP5TTreeSsSs
   fun:_ZN5genie14INukeHadroData17LoadCrossSectionsEv
   fun:_ZN5genie14INukeHadroDataC1Ev
   fun:_ZN5genie14INukeHadroData8InstanceEv
   fun:_ZN5genie11HAIntranuke10LoadConfigEv
   fun:_ZN5genie9Intranuke9ConfigureESs
   fun:_ZNK5genie10AlgFactory20InstantiateAlgorithmESsSs
   fun:_ZN5genie10AlgFactory12GetAlgorithmESsSs
   fun:_ZNK5genie9Algorithm6SubAlgERKSs
   fun:_ZN5genie17HadronTransporter10LoadConfigEv
   fun:_ZN5genie17HadronTransporter9ConfigureESs
   fun:_ZNK5genie10AlgFactory20InstantiateAlgorithmESsSs
   fun:_ZN5genie10AlgFactory12GetAlgorithmESsSs
   fun:_ZNK5genie9Algorithm6SubAlgERKSs
}
{
   <insert a suppression name here>
   Memcheck:Leak
   fun:_vgrZU_libstdcZpZpZa__Znwm
   fun:_ZN5TList7NewLinkEP7TObjectP8TObjLink
   fun:_ZN5TList7AddLastEP7TObject
   fun:_ZN10THashTable3AddEP7TObject
   fun:_ZN4TMap3AddEP7TObjectS1_
   fun:_ZN11TClassTable3AddEPKcsRKSt9type_infoPFvvEi
   fun:_ZNK4ROOT20TDefaultInitBehavior8RegisterEPKcsRKSt9type_infoPFvvEi
   fun:_ZN4ROOT17TGenericClassInfoC1EPKciS2_iRKSt9type_infoPKNS_13TInitBehaviorEPFvvEP16TVirtualIsAProxyii
   fun:_ZN4ROOT25GenerateInitInstanceLocalEPK6TClass
   fun:_Z41__static_initialization_and_destruction_0ii
   obj:/minerva/app/users/perdue/GENIE/support/root/lib/libCore.so
   obj:/minerva/app/users/perdue/GENIE/support/root/lib/libCore.so
   obj:*
   obj:*
   obj:*
   obj:*
}
{
   <insert a suppression name here>
   Memcheck:Leak
   fun:_vgrZU_libstdcZpZpZa__Znam
   fun:_ZN7TString4InitEii
   fun:_ZN7TStringC1EPKc
   fun:_ZN11TClassTable3AddEPKcsRKSt9type_infoPFvvEi
   fun:_ZNK4ROOT20TDefaultInitBehavior8RegisterEPKcsRKSt9type_infoPFvvEi
   fun:_ZN4ROOT17TGenericClassInfoC1EPKciS2_iRKSt9type_infoPKNS_13TInitBehaviorEPFvvEP16TVirtualIsAProxyii
   fun:_ZN4ROOT25GenerateInitInstanceLocalEPK14TFileMergeInfo
   fun:_Z41__static_initialization_and_destruction_0ii
   obj:/minerva/app/users/perdue/GENIE/support/root/lib/libCore.so
   obj:/minerva/app/users/perdue/GENIE/support/root/lib/libCore.so
   obj:*
   obj:*
   obj:*
   obj:*
}
{
   <insert a suppression name here>
   Memcheck:Leak
   fun:_vgrZU_libstdcZpZpZa__Znwm
   fun:_ZN8TStorage11ObjectAllocEm
   fun:_ZN7TObjectnwEm
   fun:_ZN5genie14INukeHadroData17LoadCrossSectionsEv
   fun:_ZN5genie14INukeHadroDataC1Ev
   fun:_ZN5genie14INukeHadroData8InstanceEv
   fun:_ZN5genie11HAIntranuke10LoadConfigEv
   fun:_ZN5genie9Intranuke9ConfigureESs
   fun:_ZNK5genie10AlgFactory20InstantiateAlgorithmESsSs
   fun:_ZN5genie10AlgFactory12GetAlgorithmESsSs
   fun:_ZNK5genie9Algorithm6SubAlgERKSs
   fun:_ZN5genie17HadronTransporter10LoadConfigEv
   fun:_ZN5genie17HadronTransporter9ConfigureESs
   fun:_ZNK5genie10AlgFactory20InstantiateAlgorithmESsSs
   fun:_ZN5genie10AlgFactory12GetAlgorithmESsSs
   fun:_ZNK5genie9Algorithm6SubAlgERKSs
   fun:_ZN5genie14EventGenerator10LoadConfigEv
   fun:_ZN5genie14EventGenerator9ConfigureESs
   fun:_ZNK5genie10AlgFactory20InstantiateAlgorithmESsSs
   fun:_ZN5genie10AlgFactory12GetAlgorithmESsSs
   fun:_ZNK5genie9Algorithm6SubAlgERKSs
   fun:_ZN5genie27EventGeneratorListAssembler13LoadGeneratorEi
   fun:_ZN5genie27EventGeneratorListAssembler21AssembleGeneratorListEv
   fun:_ZN5genie10GEVGDriver18BuildGeneratorListEv
}
{
   <insert a suppression name here>
   Memcheck:Leak
   fun:_vgrZU_libstdcZpZpZa__Znwm
   fun:_ZN13TStreamerInfo14AddWriteActionEiP16TStreamerElement
   fun:_ZN13TStreamerInfo7CompileEv
   fun:_ZN13TStreamerInfo5BuildEv
   fun:_ZN11TBufferFile16WriteClassBufferEPK6TClassPv
   fun:_ZN14TBranchElement8StreamerER7TBuffer
   fun:_ZN11TBufferFile16WriteObjectClassEPKvPK6TClass
   fun:_ZN11TBufferFile14WriteObjectAnyEPKvPK6TClass
   fun:_ZN9TObjArray8StreamerER7TBuffer
   fun:_ZN11TBufferFile14WriteFastArrayEPvPK6TClassiP15TMemberStreamer
   fun:_ZN13TStreamerInfo14WriteBufferAuxIPPcEEiR7TBufferRKT_iiii
   fun:_ZN20TStreamerInfoActions18GenericWriteActionER7TBufferPvPKNS_14TConfigurationE
   fun:_ZN11TBufferFile13ApplySequenceERKN20TStreamerInfoActions15TActionSequenceEPv
   fun:_ZN11TBufferFile16WriteClassBufferEPK6TClassPv
   fun:_ZN5TTree8StreamerER7TBuffer
   fun:_ZN4TKeyC1EPK7TObjectPKciP10TDirectory
   fun:_ZN5TFile9CreateKeyEP10TDirectoryPK7TObjectPKci
   fun:_ZN14TDirectoryFile12WriteTObjectEPK7TObjectPKcS4_i
   fun:_ZNK7TObject5WriteEPKcii
   fun:_ZN14TDirectoryFile5WriteEPKcii
   fun:_ZN5TFile5WriteEPKcii
   fun:_ZN5genie9NtpWriter4SaveEv
   fun:_Z31GenerateEventsUsingFluxOrTgtMixv
   fun:main
}
{
   <insert a suppression name here>
   Memcheck:Leak
   fun:_vgrZU_libcZdsoZa_malloc
   fun:G__createtemplateclass
   fun:G__tagtable_setup
   fun:G__cpp_setup_tagtableG__Meta
   fun:G__cpp_setupG__Meta
   fun:G__call_setup_funcs
   fun:G__main
   fun:G__init_cint
   fun:_ZN5TCint8ResetAllEv
   fun:_ZN5TCintC1EPKcS1_
   fun:_ZN5TROOTC1EPKcS1_PPFvvE
   fun:_ZN4ROOT7GetROOTEv
   fun:_Z41__static_initialization_and_destruction_0ii
   obj:/minerva/app/users/perdue/GENIE/support/root/lib/libCore.so
   obj:/minerva/app/users/perdue/GENIE/support/root/lib/libCore.so
   obj:*
   obj:*
   obj:*
   obj:*
   obj:*
   obj:*
   fun:_vgrZU_libcZdsoZa_malloc
   fun:G__search_tagname
   fun:G__get_linked_tagnum
}
{
   <insert a suppression name here>
   Memcheck:Leak
   fun:_vgrZU_libcZdsoZa_malloc
   fun:_Z18G__make_ifunctableR18G__FastAllocString
   fun:G__define_var
   fun:G__exec_statement
   fun:G__define_struct
   fun:G__exec_statement
   fun:G__loadfile
   fun:G__include_file
   fun:G__exec_statement
   fun:G__exec_tempfile_core
   fun:G__exec_tempfile_fp
   fun:G__process_cmd
   fun:_ZN5TCint11ProcessLineEPKcPN12TInterpreter10EErrorCodeE
   fun:_ZN5TCintC1EPKcS1_
   fun:_ZN5TROOTC1EPKcS1_PPFvvE
   fun:_ZN4ROOT7GetROOTEv
   fun:_Z41__static_initialization_and_destruction_0ii
   obj:/minerva/app/users/perdue/GENIE/support/root/lib/libCore.so
   obj:/minerva/app/users/perdue/GENIE/support/root/lib/libCore.so
   obj:*
   obj:*
   obj:*
   obj:*
   obj:*
}
{
   <insert a suppression name here>
   Memcheck:Leak
   fun:_vgrZU_libcZdsoZa_malloc
   fun:G__search_typename
   fun:G__search_typename2
   fun:G__cpp_setup_typetableG__TreePlayer
   fun:G__cpp_setupG__TreePlayer
   fun:G__call_setup_funcs
   fun:_Z41__static_initialization_and_destruction_0ii
   obj:/minerva/app/users/perdue/GENIE/support/root/lib/libTreePlayer.so
   obj:/minerva/app/users/perdue/GENIE/support/root/lib/libTreePlayer.so
   obj:*
   obj:*
   obj:*
   obj:*
   obj:*
   obj:*
   fun:_vgrZU_libstdcZpZpZa__Znwm
   fun:_ZNSt8_Rb_treeIPKcSt4pairIKS1_St3setIiSt4lessIiESaIiEEESt10_Select1stIS9_EN7NameMap15G__charptr_lessESaIS9_EE9_M_insertEPSt18_Rb_tree_node_baseSH_RKS9_
   fun:_ZNSt8_Rb_treeIPKcSt4pairIKS1_St3setIiSt4lessIiESaIiEEESt10_Select1stIS9_EN7NameMap15G__charptr_lessESaIS9_EE13insert_uniqueESt17_Rb_tree_iteratorIS9_ERKS9_
   fun:G__search_typename
   fun:G__search_typename2
   fun:G__cpp_setup_typetableG__TreePlayer
   fun:G__cpp_setupG__TreePlayer
   fun:G__call_setup_funcs
   fun:_Z41__static_initialization_and_destruction_0ii
}
{
   <insert a suppression name here>
   Memcheck:Leak
   fun:_vgrZU_libstdcZpZpZa__Znwm
   fun:G__tagtable_setup
   fun:G__cpp_setup_tagtableG__MetaUtils
   fun:G__cpp_setupG__MetaUtils
   fun:G__call_setup_funcs
   fun:G__main
   fun:G__init_cint
   fun:_ZN5TCint8ResetAllEv
   fun:_ZN5TCintC1EPKcS1_
   fun:_ZN5TROOTC1EPKcS1_PPFvvE
   fun:_ZN4ROOT7GetROOTEv
   fun:_Z41__static_initialization_and_destruction_0ii
   obj:/minerva/app/users/perdue/GENIE/support/root/lib/libCore.so
   obj:/minerva/app/users/perdue/GENIE/support/root/lib/libCore.so
   obj:*
   obj:*
   obj:*
   obj:*
   obj:*
   obj:*
   fun:_vgrZU_libstdcZpZpZa__Znwm
   fun:G__tagtable_setup
   fun:G__cpp_setup_tagtableG__MetaUtils
   fun:G__cpp_setupG__MetaUtils
}
{
   <insert a suppression name here>
   Memcheck:Leak
   fun:_vgrZU_libcZdsoZa_malloc
   fun:G__inheritance_setup
   fun:G__cpp_setup_inheritanceG__Unix
   fun:G__cpp_setupG__Unix
   fun:G__call_setup_funcs
   fun:G__main
   fun:G__init_cint
   fun:_ZN5TCint8ResetAllEv
   fun:_ZN5TCintC1EPKcS1_
   fun:_ZN5TROOTC1EPKcS1_PPFvvE
   fun:_ZN4ROOT7GetROOTEv
   fun:_Z41__static_initialization_and_destruction_0ii
   obj:/minerva/app/users/perdue/GENIE/support/root/lib/libCore.so
   obj:/minerva/app/users/perdue/GENIE/support/root/lib/libCore.so
   obj:*
   obj:*
   obj:*
   obj:*
   obj:*
   obj:*
   fun:_vgrZU_libcZdsoZa_malloc
   fun:G__inheritance_setup
   fun:G__cpp_setup_inheritanceG__Unix
   fun:G__cpp_setupG__Unix
}
{
   <insert a suppression name here>
   Memcheck:Leak
   fun:_vgrZU_libstdcZpZpZa__Znwm
   fun:_ZN8TStorage11ObjectAllocEm
   fun:_ZN7TObjectnwEm
   fun:_ZN5genie6Spline11BuildSplineEiPdS1_
   fun:_ZN5genie6Spline12LoadFromTreeEP5TTreeSsSs
   fun:_ZN5genie6SplineC1EP5TTreeSsSs
   fun:_ZN5genie14INukeHadroData17LoadCrossSectionsEv
   fun:_ZN5genie14INukeHadroDataC1Ev
   fun:_ZN5genie14INukeHadroData8InstanceEv
   fun:_ZN5genie11HAIntranuke10LoadConfigEv
   fun:_ZN5genie9Intranuke9ConfigureESs
   fun:_ZNK5genie10AlgFactory20InstantiateAlgorithmESsSs
   fun:_ZN5genie10AlgFactory12GetAlgorithmESsSs
   fun:_ZNK5genie9Algorithm6SubAlgERKSs
   fun:_ZN5genie17HadronTransporter10LoadConfigEv
   fun:_ZN5genie17HadronTransporter9ConfigureESs
   fun:_ZNK5genie10AlgFactory20InstantiateAlgorithmESsSs
   fun:_ZN5genie10AlgFactory12GetAlgorithmESsSs
   fun:_ZNK5genie9Algorithm6SubAlgERKSs
   fun:_ZN5genie14EventGenerator10LoadConfigEv
   fun:_ZN5genie14EventGenerator9ConfigureESs
   fun:_ZNK5genie10AlgFactory20InstantiateAlgorithmESsSs
   fun:_ZN5genie10AlgFactory12GetAlgorithmESsSs
   fun:_ZNK5genie9Algorithm6SubAlgERKSs
}
{
   <insert a suppression name here>
   Memcheck:Leak
   fun:_vgrZU_libstdcZpZpZa__Znwm
   fun:_ZN5TCint17UpdateListOfTypesEv
   fun:_ZN5TCint4LoadEPKcb
   fun:_ZN7TSystem4LoadEPKcS1_b
   fun:_ZN5TROOT9LoadClassEPKcS1_b
   fun:_ZN18TVirtualTreePlayer10TreePlayerEP5TTree
   fun:_ZN5TTree9GetPlayerEv
   fun:_ZN5TTree4DrawEPKcS1_S1_xx
   fun:_ZN5genie6Spline12LoadFromTreeEP5TTreeSsSs
   fun:_ZN5genie6SplineC1EP5TTreeSsSs
   fun:_ZN5genie14INukeHadroData17LoadCrossSectionsEv
   fun:_ZN5genie14INukeHadroDataC1Ev
   fun:_ZN5genie14INukeHadroData8InstanceEv
   fun:_ZN5genie11HAIntranuke10LoadConfigEv
   fun:_ZN5genie9Intranuke9ConfigureESs
   fun:_ZNK5genie10AlgFactory20InstantiateAlgorithmESsSs
   fun:_ZN5genie10AlgFactory12GetAlgorithmESsSs
   fun:_ZNK5genie9Algorithm6SubAlgERKSs
   fun:_ZN5genie17HadronTransporter10LoadConfigEv
   fun:_ZN5genie17HadronTransporter9ConfigureESs
   fun:_ZNK5genie10AlgFactory20InstantiateAlgorithmESsSs
   fun:_ZN5genie10AlgFactory12GetAlgorithmESsSs
   fun:_ZNK5genie9Algorithm6SubAlgERKSs
   fun:_ZN5genie14EventGenerator10LoadConfigEv
}
{
   <insert a suppression name here>
   Memcheck:Leak
   fun:_vgrZU_libcZdsoZa_malloc
   fun:G__inheritance_setup
   fun:G__cpp_setup_inheritanceG__Unix
   fun:G__cpp_setupG__Unix
   fun:G__call_setup_funcs
   fun:G__main
   fun:G__init_cint
   fun:_ZN5TCint8ResetAllEv
   fun:_ZN5TCintC1EPKcS1_
   fun:_ZN5TROOTC1EPKcS1_PPFvvE
   fun:_ZN4ROOT7GetROOTEv
   fun:_Z41__static_initialization_and_destruction_0ii
   obj:/minerva/app/users/perdue/GENIE/support/root/lib/libCore.so
   obj:/minerva/app/users/perdue/GENIE/support/root/lib/libCore.so
   obj:*
   obj:*
   obj:*
   obj:*
   obj:*
   obj:*
   fun:_vgrZU_libcZdsoZa_malloc
   fun:G__inheritance_setup
   fun:G__cpp_setup_inheritanceG__Unix
   fun:G__cpp_setupG__Unix
}
{
   <insert a suppression name here>
   Memcheck:Leak
   fun:_vgrZU_libstdcZpZpZa__Znwm
   fun:_ZN5TCint19UpdateListOfGlobalsEv
   fun:_ZN5TROOT16GetListOfGlobalsEb
   fun:_ZN11TDataMemberC1EPvP6TClass
   fun:_ZN5TCint23CreateListOfDataMembersEP6TClass
   fun:_ZN6TClass20GetListOfDataMembersEv
   fun:_ZNK6TClass13GetDataMemberEPKc
   fun:_ZN14TBuildRealData7InspectEP6TClassPKcS3_PKv
   fun:_ZN3TH111ShowMembersER16TMemberInspector
   fun:_ZN4TH1D11ShowMembersER16TMemberInspector
   fun:_ZNK6TClass15CallShowMembersEPvR16TMemberInspectori
   fun:_ZN6TClass13BuildRealDataEPvb
   fun:_ZN11TBufferFile16WriteClassBufferEPK6TClassPv
   fun:_ZN4TKeyC1EPK7TObjectPKciP10TDirectory
   fun:_ZN5TFile9CreateKeyEP10TDirectoryPK7TObjectPKci
   fun:_ZN14TDirectoryFile12WriteTObjectEPK7TObjectPKcS4_i
   fun:_ZNK7TObject5WriteEPKcii
   fun:_Z13TH1FluxDriverv
   fun:_Z10FluxDriverv
   fun:_Z31GenerateEventsUsingFluxOrTgtMixv
   fun:main
}
{
   <insert a suppression name here>
   Memcheck:Leak
   fun:_vgrZU_libcZdsoZa_malloc
   fun:xmlNewDoc
   fun:xmlSAX2StartDocument
   fun:xmlParseDocument
   fun:xmlSAXParseFileWithData
   fun:_ZN5genie9Messenger24SetPrioritiesFromXmlFileESs
   fun:_ZN5genie9Messenger9ConfigureEv
   fun:_ZN5genie9Messenger8InstanceEv
   fun:_Z18GetCommandLineArgsiPPc
   fun:main
}
{
   <insert a suppression name here>
   Memcheck:Leak
   fun:_vgrZU_libstdcZpZpZa__Znwm
   fun:_ZN13TStreamerInfo14AddWriteActionEiP16TStreamerElement
   fun:_ZN13TStreamerInfo7CompileEv
   fun:_ZN13TStreamerInfo8BuildOldEv
   fun:_Z24R__GenerateTClassForPairRKSsS0_
   fun:_ZN24TEmulatedCollectionProxy12InitializeExEb
   fun:_ZN24TEmulatedCollectionProxyC2EPKcb
   fun:_ZN17TEmulatedMapProxyC1EPKcb
   fun:_ZN111_GLOBAL__N__minerva_app_users_perdue_GENIE_support_root_io_io_src_TCollectionProxyFactory.cxx_00000000_E1C7F02612GenEmulationEPKcb
   fun:_ZN6TClass4InitEPKcsPKSt9type_infoP16TVirtualIsAProxyPFvPvR16TMemberInspectorES1_S1_iib
   fun:_ZN6TClassC1EPKcsRKSt9type_infoP16TVirtualIsAProxyPFvPvR16TMemberInspectorES1_S1_iib
   fun:_ZN4ROOT11CreateClassEPKcsRKSt9type_infoP16TVirtualIsAProxyPFvPvR16TMemberInspectorES1_S1_ii
   fun:_ZNK4ROOT20TDefaultInitBehavior11CreateClassEPKcsRKSt9type_infoP16TVirtualIsAProxyPFvPvR16TMemberInspectorES2_S2_ii
   fun:_ZN4ROOT17TGenericClassInfo8GetClassEv
   fun:_ZN4ROOT43maplEgeniecLcLEKineVarcOdoublegR_DictionaryEv
   fun:_ZNK5TROOT9LoadClassEPKcb
   fun:_ZN6TClass8GetClassEPKcbb
   fun:_Z15R__FindSTLClassPKcbbS0_
   fun:_ZN6TClass8GetClassEPKcbb
   fun:_ZN14TBuildRealData7InspectEP6TClassPKcS3_PKv
   fun:_ZN5genie10Kinematics11ShowMembersER16TMemberInspector
   fun:_ZNK6TClass15CallShowMembersEPvR16TMemberInspectori
   fun:_ZN6TClass13BuildRealDataEPvb
   fun:_ZN13TStreamerInfo5BuildEv
}
{
   <insert a suppression name here>
   Memcheck:Leak
   fun:_vgrZU_libstdcZpZpZa__Znwm
   fun:_ZN13TStreamerInfo13AddReadActionEiP16TStreamerElement
   fun:_ZN13TStreamerInfo7CompileEv
   fun:_ZN13TStreamerInfo5BuildEv
   fun:_ZN11TBufferFile16WriteClassBufferEPK6TClassPv
   fun:_ZN5TTree8StreamerER7TBuffer
   fun:_ZN4TKeyC1EPK7TObjectPKciP10TDirectory
   fun:_ZN5TFile9CreateKeyEP10TDirectoryPK7TObjectPKci
   fun:_ZN14TDirectoryFile12WriteTObjectEPK7TObjectPKcS4_i
   fun:_ZNK7TObject5WriteEPKcii
   fun:_ZN14TDirectoryFile5WriteEPKcii
   fun:_ZN5TFile5WriteEPKcii
   fun:_ZN5genie9NtpWriter4SaveEv
   fun:_Z31GenerateEventsUsingFluxOrTgtMixv
   fun:main
}
{
   <insert a suppression name here>
   Memcheck:Leak
   fun:_vgrZU_libstdcZpZpZa__Znwm
   fun:_Z23GetCollectionReadActionIN20TStreamerInfoActions15VectorPtrLooperEENS0_17TConfiguredActionEP20TVirtualStreamerInfoP16TStreamerElementiji
   fun:_ZN13TStreamerInfo13AddReadActionEiP16TStreamerElement
   fun:_ZN13TStreamerInfo7CompileEv
   fun:_ZN11TBufferFile20ForceWriteInfoClonesEP12TClonesArray
   fun:_ZN12TClonesArray8StreamerER7TBuffer
   fun:_ZN13TStreamerBase11WriteBufferER7TBufferPc
   fun:_ZN13TStreamerInfo14WriteBufferAuxIPPcEEiR7TBufferRKT_iiii
   fun:_ZN20TStreamerInfoActions18GenericWriteActionER7TBufferPvPKNS_14TConfigurationE
   fun:_ZN11TBufferFile13ApplySequenceERKN20TStreamerInfoActions15TActionSequenceEPv
   fun:_ZN11TBufferFile16WriteClassBufferEPK6TClassPv
   fun:_ZN5genie10GHepRecord8StreamerER7TBuffer
   fun:_ZN5genie11EventRecord8StreamerER7TBuffer
   fun:_ZN11TBufferFile16WriteObjectClassEPKvPK6TClass
   fun:_ZN11TBufferFile14WriteObjectAnyEPKvPK6TClass
   fun:_ZN11TBufferFile14WriteFastArrayEPPvPK6TClassibP15TMemberStreamer
   fun:_ZN13TStreamerInfo14WriteBufferAuxIPPcEEiR7TBufferRKT_iiii
   fun:_ZN20TStreamerInfoActions18GenericWriteActionER7TBufferPvPKNS_14TConfigurationE
   fun:_ZN11TBufferFile13ApplySequenceERKN20TStreamerInfoActions15TActionSequenceEPv
   fun:_ZN7TBranch4FillEv
   fun:_ZN14TBranchElement4FillEv
   fun:_ZN14TBranchElement4FillEv
   fun:_ZN5TTree4FillEv
   fun:_ZN5genie9NtpWriter14AddEventRecordEiPKNS_11EventRecordE
}
{
   <insert a suppression name here>
   Memcheck:Leak
   fun:_vgrZU_libstdcZpZpZa__Znwm
   fun:_ZN23TCollectionProxyFactory24GenExplicitClassStreamerERKN4ROOT20TCollectionProxyInfoEP6TClass
   fun:_ZN6TClass18SetCollectionProxyERKN4ROOT20TCollectionProxyInfoE
   fun:_ZN4ROOT17TGenericClassInfo8GetClassEv
   fun:_ZNK5TROOT9LoadClassEPKcb
   fun:_ZN6TClass8GetClassEPKcbb
   fun:_ZN14TBuildRealData7InspectEP6TClassPKcS3_PKv
   fun:_ZN14TBranchElement11ShowMembersER16TMemberInspector
   fun:_ZNK6TClass15CallShowMembersEPvR16TMemberInspectori
   fun:_ZN6TClass13BuildRealDataEPvb
   fun:_ZN11TBufferFile16WriteClassBufferEPK6TClassPv
   fun:_ZN14TBranchElement8StreamerER7TBuffer
   fun:_ZN11TBufferFile16WriteObjectClassEPKvPK6TClass
   fun:_ZN11TBufferFile14WriteObjectAnyEPKvPK6TClass
   fun:_ZN9TObjArray8StreamerER7TBuffer
   fun:_ZN11TBufferFile14WriteFastArrayEPvPK6TClassiP15TMemberStreamer
   fun:_ZN13TStreamerInfo14WriteBufferAuxIPPcEEiR7TBufferRKT_iiii
   fun:_ZN20TStreamerInfoActions18GenericWriteActionER7TBufferPvPKNS_14TConfigurationE
   fun:_ZN11TBufferFile13ApplySequenceERKN20TStreamerInfoActions15TActionSequenceEPv
   fun:_ZN11TBufferFile16WriteClassBufferEPK6TClassPv
   fun:_ZN5TTree8StreamerER7TBuffer
   fun:_ZN4TKeyC1EPK7TObjectPKciP10TDirectory
   fun:_ZN5TFile9CreateKeyEP10TDirectoryPK7TObjectPKci
   fun:_ZN14TDirectoryFile12WriteTObjectEPK7TObjectPKcS4_i
}
{
   <insert a suppression name here>
   Memcheck:Leak
   fun:_vgrZU_libstdcZpZpZa__Znwm
   fun:_Z23GetCollectionReadActionIN20TStreamerInfoActions15VectorPtrLooperEENS0_17TConfiguredActionEP20TVirtualStreamerInfoP16TStreamerElementiji
   fun:_ZN13TStreamerInfo13AddReadActionEiP16TStreamerElement
   fun:_ZN13TStreamerInfo7CompileEv
   fun:_ZN13TStreamerInfo5BuildEv
   fun:_ZN11TBufferFile16WriteClassBufferEPK6TClassPv
   fun:_ZN5TAxis8StreamerER7TBuffer
   fun:_ZN11TBufferFile14WriteFastArrayEPvPK6TClassiP15TMemberStreamer
   fun:_ZN13TStreamerInfo14WriteBufferAuxIPPcEEiR7TBufferRKT_iiii
   fun:_ZN20TStreamerInfoActions18GenericWriteActionER7TBufferPvPKNS_14TConfigurationE
   fun:_ZN11TBufferFile13ApplySequenceERKN20TStreamerInfoActions15TActionSequenceEPv
   fun:_ZN11TBufferFile16WriteClassBufferEPK6TClassPv
   fun:_ZN3TH18StreamerER7TBuffer
   fun:_ZN13TStreamerBase11WriteBufferER7TBufferPc
   fun:_ZN13TStreamerInfo14WriteBufferAuxIPPcEEiR7TBufferRKT_iiii
   fun:_ZN20TStreamerInfoActions18GenericWriteActionER7TBufferPvPKNS_14TConfigurationE
   fun:_ZN11TBufferFile13ApplySequenceERKN20TStreamerInfoActions15TActionSequenceEPv
   fun:_ZN11TBufferFile16WriteClassBufferEPK6TClassPv
   fun:_ZN4TKeyC1EPK7TObjectPKciP10TDirectory
   fun:_ZN5TFile9CreateKeyEP10TDirectoryPK7TObjectPKci
   fun:_ZN14TDirectoryFile12WriteTObjectEPK7TObjectPKcS4_i
   fun:_ZNK7TObject5WriteEPKcii
   fun:_Z13TH1FluxDriverv
   fun:_Z10FluxDriverv
}
{
   <insert a suppression name here>
   Memcheck:Leak
   fun:_vgrZU_libstdcZpZpZa__Znwm
   fun:_ZN13TStreamerInfo14AddWriteActionEiP16TStreamerElement
   fun:_ZN13TStreamerInfo7CompileEv
   fun:_ZN13TStreamerInfo5BuildEv
   fun:_ZNK6TClass15GetStreamerInfoEi
   fun:_ZN13TStreamerInfo14ForceWriteInfoEP5TFileb
   fun:_ZN13TStreamerInfo14ForceWriteInfoEP5TFileb
   fun:_ZN13TStreamerInfo14ForceWriteInfoEP5TFileb
   fun:_ZN13TStreamerInfo14ForceWriteInfoEP5TFileb
   fun:_ZN13TStreamerInfo14ForceWriteInfoEP5TFileb
   fun:_ZN5TTree17BuildStreamerInfoEP6TClassPvb
   fun:_ZN5TTree10BronchExecEPKcS1_Pvbii
   fun:_ZN5TTree6BronchEPKcS1_Pvii
   fun:_ZN5TTree6BranchIN5genie16NtpMCEventRecordEEEP7TBranchPKcS6_PPT_ii
   fun:_ZN5genie9NtpWriter21CreateGHEPEventBranchEv
   fun:_ZN5genie9NtpWriter17CreateEventBranchEv
   fun:_ZN5genie9NtpWriter10InitializeEv
   fun:_Z31GenerateEventsUsingFluxOrTgtMixv
   fun:main
}
{
   <insert a suppression name here>
   Memcheck:Leak
   fun:_vgrZU_libstdcZpZpZa__Znwm
   fun:_Z23GetCollectionReadActionIN20TStreamerInfoActions15VectorPtrLooperEENS0_17TConfiguredActionEP20TVirtualStreamerInfoP16TStreamerElementiji
   fun:_ZN13TStreamerInfo13AddReadActionEiP16TStreamerElement
   fun:_ZN13TStreamerInfo7CompileEv
   fun:_ZN13TStreamerInfo5BuildEv
   fun:_ZNK6TClass15GetStreamerInfoEi
   fun:_ZN13TStreamerInfo14ForceWriteInfoEP5TFileb
   fun:_ZN13TStreamerInfo14ForceWriteInfoEP5TFileb
   fun:_ZN13TStreamerInfo14ForceWriteInfoEP5TFileb
   fun:_ZN13TStreamerInfo14ForceWriteInfoEP5TFileb
   fun:_ZN13TStreamerInfo14ForceWriteInfoEP5TFileb
   fun:_ZN5TTree17BuildStreamerInfoEP6TClassPvb
   fun:_ZN5TTree10BronchExecEPKcS1_Pvbii
   fun:_ZN5TTree6BronchEPKcS1_Pvii
   fun:_ZN5TTree6BranchIN5genie16NtpMCEventRecordEEEP7TBranchPKcS6_PPT_ii
   fun:_ZN5genie9NtpWriter21CreateGHEPEventBranchEv
   fun:_ZN5genie9NtpWriter17CreateEventBranchEv
   fun:_ZN5genie9NtpWriter10InitializeEv
   fun:_Z31GenerateEventsUsingFluxOrTgtMixv
   fun:main
}
{
   <insert a suppression name here>
   Memcheck:Leak
   fun:_vgrZU_libstdcZpZpZa__Znwm
   fun:_ZN13TStreamerInfo13AddReadActionEiP16TStreamerElement
   fun:_ZN13TStreamerInfo7CompileEv
   fun:_ZN13TStreamerInfo5BuildEv
   fun:_ZNK6TClass15GetStreamerInfoEi
   fun:_ZN13TStreamerInfo14ForceWriteInfoEP5TFileb
   fun:_ZN13TStreamerInfo14ForceWriteInfoEP5TFileb
   fun:_ZN13TStreamerInfo14ForceWriteInfoEP5TFileb
   fun:_ZN13TStreamerInfo14ForceWriteInfoEP5TFileb
   fun:_ZN5TTree17BuildStreamerInfoEP6TClassPvb
   fun:_ZN5TTree10BronchExecEPKcS1_Pvbii
   fun:_ZN5TTree6BronchEPKcS1_Pvii
   fun:_ZN5TTree6BranchIN5genie16NtpMCEventRecordEEEP7TBranchPKcS6_PPT_ii
   fun:_ZN5genie9NtpWriter21CreateGHEPEventBranchEv
   fun:_ZN5genie9NtpWriter17CreateEventBranchEv
   fun:_ZN5genie9NtpWriter10InitializeEv
   fun:_Z31GenerateEventsUsingFluxOrTgtMixv
   fun:main
}
{
   <insert a suppression name here>
   Memcheck:Leak
   fun:_vgrZU_libstdcZpZpZa__Znwm
   fun:_Z23GetCollectionReadActionIN20TStreamerInfoActions15VectorPtrLooperEENS0_17TConfiguredActionEP20TVirtualStreamerInfoP16TStreamerElementiji
   fun:_ZN13TStreamerInfo13AddReadActionEiP16TStreamerElement
   fun:_ZN13TStreamerInfo7CompileEv
   fun:_ZN13TStreamerInfo5BuildEv
   fun:_ZN11TBufferFile16WriteClassBufferEPK6TClassPv
   fun:_ZN14TBranchElement8StreamerER7TBuffer
   fun:_ZN11TBufferFile16WriteObjectClassEPKvPK6TClass
   fun:_ZN11TBufferFile14WriteObjectAnyEPKvPK6TClass
   fun:_ZN9TObjArray8StreamerER7TBuffer
   fun:_ZN11TBufferFile14WriteFastArrayEPvPK6TClassiP15TMemberStreamer
   fun:_ZN13TStreamerInfo14WriteBufferAuxIPPcEEiR7TBufferRKT_iiii
   fun:_ZN20TStreamerInfoActions18GenericWriteActionER7TBufferPvPKNS_14TConfigurationE
   fun:_ZN11TBufferFile13ApplySequenceERKN20TStreamerInfoActions15TActionSequenceEPv
   fun:_ZN11TBufferFile16WriteClassBufferEPK6TClassPv
   fun:_ZN5TTree8StreamerER7TBuffer
   fun:_ZN4TKeyC1EPK7TObjectPKciP10TDirectory
   fun:_ZN5TFile9CreateKeyEP10TDirectoryPK7TObjectPKci
   fun:_ZN14TDirectoryFile12WriteTObjectEPK7TObjectPKcS4_i
   fun:_ZNK7TObject5WriteEPKcii
   fun:_ZN14TDirectoryFile5WriteEPKcii
   fun:_ZN5TFile5WriteEPKcii
   fun:_ZN5genie9NtpWriter4SaveEv
   fun:_Z31GenerateEventsUsingFluxOrTgtMixv
}
{
   <insert a suppression name here>
   Memcheck:Leak
   fun:_vgrZU_libstdcZpZpZa__Znwm
   fun:_ZN13TStreamerInfo13AddReadActionEiP16TStreamerElement
   fun:_ZN13TStreamerInfo7CompileEv
   fun:_ZN13TStreamerInfo5BuildEv
   fun:_ZNK6TClass15GetStreamerInfoEi
   fun:_ZNK6TClass12InheritsFromEPKS_
   fun:_ZNK6TClass8PropertyEv
   fun:_ZN14TBuildRealData7InspectEP6TClassPKcS3_PKv
   fun:_ZN5genie10Kinematics11ShowMembersER16TMemberInspector
   fun:_ZNK6TClass15CallShowMembersEPvR16TMemberInspectori
   fun:_ZN6TClass13BuildRealDataEPvb
   fun:_ZN13TStreamerInfo5BuildEv
   fun:_ZNK6TClass15GetStreamerInfoEi
   fun:_ZN13TStreamerInfo14ForceWriteInfoEP5TFileb
   fun:_ZN13TStreamerInfo14ForceWriteInfoEP5TFileb
   fun:_ZN13TStreamerInfo14ForceWriteInfoEP5TFileb
   fun:_ZN13TStreamerInfo14ForceWriteInfoEP5TFileb
   fun:_ZN5TTree17BuildStreamerInfoEP6TClassPvb
   fun:_ZN5TTree10BronchExecEPKcS1_Pvbii
   fun:_ZN5TTree6BronchEPKcS1_Pvii
   fun:_ZN5TTree6BranchIN5genie16NtpMCEventRecordEEEP7TBranchPKcS6_PPT_ii
   fun:_ZN5genie9NtpWriter21CreateGHEPEventBranchEv
   fun:_ZN5genie9NtpWriter17CreateEventBranchEv
   fun:_ZN5genie9NtpWriter10InitializeEv
}
{
   <insert a suppression name here>
   Memcheck:Leak
   fun:_vgrZU_libstdcZpZpZa__Znwm
   fun:_ZN13TStreamerInfo14AddWriteActionEiP16TStreamerElement
   fun:_ZN13TStreamerInfo7CompileEv
   fun:_ZN13TStreamerInfo5BuildEv
   fun:_ZNK6TClass15GetStreamerInfoEi
   fun:_ZN13TStreamerInfo5BuildEv
   fun:_ZN11TBufferFile16WriteClassBufferEPK6TClassPv
   fun:_ZN14TBranchElement8StreamerER7TBuffer
   fun:_ZN11TBufferFile16WriteObjectClassEPKvPK6TClass
   fun:_ZN11TBufferFile14WriteObjectAnyEPKvPK6TClass
   fun:_ZN9TObjArray8StreamerER7TBuffer
   fun:_ZN11TBufferFile14WriteFastArrayEPvPK6TClassiP15TMemberStreamer
   fun:_ZN13TStreamerInfo14WriteBufferAuxIPPcEEiR7TBufferRKT_iiii
   fun:_ZN20TStreamerInfoActions18GenericWriteActionER7TBufferPvPKNS_14TConfigurationE
   fun:_ZN11TBufferFile13ApplySequenceERKN20TStreamerInfoActions15TActionSequenceEPv
   fun:_ZN11TBufferFile16WriteClassBufferEPK6TClassPv
   fun:_ZN5TTree8StreamerER7TBuffer
   fun:_ZN4TKeyC1EPK7TObjectPKciP10TDirectory
   fun:_ZN5TFile9CreateKeyEP10TDirectoryPK7TObjectPKci
   fun:_ZN14TDirectoryFile12WriteTObjectEPK7TObjectPKcS4_i
   fun:_ZNK7TObject5WriteEPKcii
   fun:_ZN14TDirectoryFile5WriteEPKcii
   fun:_ZN5TFile5WriteEPKcii
   fun:_ZN5genie9NtpWriter4SaveEv
}
{
   <insert a suppression name here>
   Memcheck:Leak
   fun:_vgrZU_libcZdsoZa_malloc
   fun:_dl_map_object_deps
   fun:dl_open_worker
   fun:_dl_catch_error
   fun:_dl_open
   fun:dlopen_doit
   fun:_dl_catch_error
   fun:_dlerror_run
   fun:dlopen@@GLIBC_2.2.5
   fun:G__dlopen
   fun:G__shl_load
   fun:G__loadfile
   fun:G__loadsystemfile
   fun:_ZN5TCint4LoadEPKcb
   fun:_ZN7TSystem4LoadEPKcS1_b
   fun:_ZN5TROOT9LoadClassEPKcS1_b
   fun:_ZN18TVirtualTreePlayer10TreePlayerEP5TTree
   fun:_ZN5TTree9GetPlayerEv
   fun:_ZN5TTree4DrawEPKcS1_S1_xx
   fun:_ZN5genie6Spline12LoadFromTreeEP5TTreeSsSs
   fun:_ZN5genie6SplineC1EP5TTreeSsSs
   fun:_ZN5genie14INukeHadroData17LoadCrossSectionsEv
   fun:_ZN5genie14INukeHadroDataC1Ev
   fun:_ZN5genie14INukeHadroData8InstanceEv
}
{
   <insert a suppression name here>
   Memcheck:Leak
   fun:_vgrZU_libstdcZpZpZa__Znwm
   fun:_Z14R__CreateValueRKSsb
   fun:_ZN19TGenCollectionProxy12InitializeExEb
   fun:_ZN19TGenCollectionProxy9PushProxyEPv
   fun:_ZN19TCollectionStreamer8StreamerER7TBufferPviP6TClass
   fun:_ZN11TBufferFile14WriteFastArrayEPvPK6TClassiP15TMemberStreamer
   fun:_ZN13TStreamerInfo14WriteBufferAuxIPPcEEiR7TBufferRKT_iiii
   fun:_ZN20TStreamerInfoActions18GenericWriteActionER7TBufferPvPKNS_14TConfigurationE
   fun:_ZN11TBufferFile13ApplySequenceERKN20TStreamerInfoActions15TActionSequenceEPv
   fun:_ZN11TBufferFile16WriteClassBufferEPK6TClassPv
   fun:_ZN5genie10Kinematics8StreamerER7TBuffer
   fun:_ZN11TBufferFile16WriteObjectClassEPKvPK6TClass
   fun:_ZN11TBufferFile14WriteObjectAnyEPKvPK6TClass
   fun:_ZlsIN5genie10KinematicsEER7TBufferS3_PKT_
   fun:_ZN5genie11Interaction8StreamerER7TBuffer
   fun:_ZN11TBufferFile16WriteObjectClassEPKvPK6TClass
   fun:_ZN11TBufferFile14WriteObjectAnyEPKvPK6TClass
   fun:_ZN11TBufferFile14WriteFastArrayEPPvPK6TClassibP15TMemberStreamer
   fun:_ZN13TStreamerInfo14WriteBufferAuxIPPcEEiR7TBufferRKT_iiii
   fun:_ZN20TStreamerInfoActions18GenericWriteActionER7TBufferPvPKNS_14TConfigurationE
   fun:_ZN11TBufferFile13ApplySequenceERKN20TStreamerInfoActions15TActionSequenceEPv
   fun:_ZN11TBufferFile16WriteClassBufferEPK6TClassPv
   fun:_ZN5genie10GHepRecord8StreamerER7TBuffer
   fun:_ZN5genie11EventRecord8StreamerER7TBuffer
}
{
   <insert a suppression name here>
   Memcheck:Leak
   fun:_vgrZU_libstdcZpZpZa__Znwm
   fun:_Z23GetCollectionReadActionIN20TStreamerInfoActions15VectorPtrLooperEENS0_17TConfiguredActionEP20TVirtualStreamerInfoP16TStreamerElementiji
   fun:_ZN13TStreamerInfo13AddReadActionEiP16TStreamerElement
   fun:_ZN13TStreamerInfo7CompileEv
   fun:_ZN11TBufferFile20ForceWriteInfoClonesEP12TClonesArray
   fun:_ZN12TClonesArray8StreamerER7TBuffer
   fun:_ZN13TStreamerBase11WriteBufferER7TBufferPc
   fun:_ZN13TStreamerInfo14WriteBufferAuxIPPcEEiR7TBufferRKT_iiii
   fun:_ZN20TStreamerInfoActions18GenericWriteActionER7TBufferPvPKNS_14TConfigurationE
   fun:_ZN11TBufferFile13ApplySequenceERKN20TStreamerInfoActions15TActionSequenceEPv
   fun:_ZN11TBufferFile16WriteClassBufferEPK6TClassPv
   fun:_ZN5genie10GHepRecord8StreamerER7TBuffer
   fun:_ZN5genie11EventRecord8StreamerER7TBuffer
   fun:_ZN11TBufferFile16WriteObjectClassEPKvPK6TClass
   fun:_ZN11TBufferFile14WriteObjectAnyEPKvPK6TClass
   fun:_ZN11TBufferFile14WriteFastArrayEPPvPK6TClassibP15TMemberStreamer
   fun:_ZN13TStreamerInfo14WriteBufferAuxIPPcEEiR7TBufferRKT_iiii
   fun:_ZN20TStreamerInfoActions18GenericWriteActionER7TBufferPvPKNS_14TConfigurationE
   fun:_ZN11TBufferFile13ApplySequenceERKN20TStreamerInfoActions15TActionSequenceEPv
   fun:_ZN7TBranch4FillEv
   fun:_ZN14TBranchElement4FillEv
   fun:_ZN14TBranchElement4FillEv
   fun:_ZN5TTree4FillEv
   fun:_ZN5genie9NtpWriter14AddEventRecordEiPKNS_11EventRecordE
}
{
   <insert a suppression name here>
   Memcheck:Leak
   fun:_vgrZU_libstdcZpZpZa__Znwm
   fun:_ZN23TCollectionProxyFactory16GenExplicitProxyERKN4ROOT20TCollectionProxyInfoEP6TClass
   fun:_ZN6TClass18SetCollectionProxyERKN4ROOT20TCollectionProxyInfoE
   fun:_ZN4ROOT17TGenericClassInfo8GetClassEv
   fun:_ZNK5TROOT9LoadClassEPKcb
   fun:_ZN6TClass8GetClassEPKcbb
   fun:_ZN14TBuildRealData7InspectEP6TClassPKcS3_PKv
   fun:_ZN14TBranchElement11ShowMembersER16TMemberInspector
   fun:_ZNK6TClass15CallShowMembersEPvR16TMemberInspectori
   fun:_ZN6TClass13BuildRealDataEPvb
   fun:_ZN11TBufferFile16WriteClassBufferEPK6TClassPv
   fun:_ZN14TBranchElement8StreamerER7TBuffer
   fun:_ZN11TBufferFile16WriteObjectClassEPKvPK6TClass
   fun:_ZN11TBufferFile14WriteObjectAnyEPKvPK6TClass
   fun:_ZN9TObjArray8StreamerER7TBuffer
   fun:_ZN11TBufferFile14WriteFastArrayEPvPK6TClassiP15TMemberStreamer
   fun:_ZN13TStreamerInfo14WriteBufferAuxIPPcEEiR7TBufferRKT_iiii
   fun:_ZN20TStreamerInfoActions18GenericWriteActionER7TBufferPvPKNS_14TConfigurationE
   fun:_ZN11TBufferFile13ApplySequenceERKN20TStreamerInfoActions15TActionSequenceEPv
   fun:_ZN11TBufferFile16WriteClassBufferEPK6TClassPv
   fun:_ZN5TTree8StreamerER7TBuffer
   fun:_ZN4TKeyC1EPK7TObjectPKciP10TDirectory
   fun:_ZN5TFile9CreateKeyEP10TDirectoryPK7TObjectPKci
   fun:_ZN14TDirectoryFile12WriteTObjectEPK7TObjectPKcS4_i
}
{
   <insert a suppression name here>
   Memcheck:Leak
   fun:_vgrZU_libstdcZpZpZa__Znwm
   fun:_ZN23TCollectionProxyFactory19GenExplicitStreamerERKN4ROOT20TCollectionProxyInfoEP6TClass
   fun:_ZN23TCollectionProxyFactory24GenExplicitClassStreamerERKN4ROOT20TCollectionProxyInfoEP6TClass
   fun:_ZN6TClass18SetCollectionProxyERKN4ROOT20TCollectionProxyInfoE
   fun:_ZN4ROOT17TGenericClassInfo8GetClassEv
   fun:_ZNK5TROOT9LoadClassEPKcb
   fun:_ZN6TClass8GetClassEPKcbb
   fun:_ZN14TBuildRealData7InspectEP6TClassPKcS3_PKv
   fun:_ZN14TBranchElement11ShowMembersER16TMemberInspector
   fun:_ZNK6TClass15CallShowMembersEPvR16TMemberInspectori
   fun:_ZN6TClass13BuildRealDataEPvb
   fun:_ZN11TBufferFile16WriteClassBufferEPK6TClassPv
   fun:_ZN14TBranchElement8StreamerER7TBuffer
   fun:_ZN11TBufferFile16WriteObjectClassEPKvPK6TClass
   fun:_ZN11TBufferFile14WriteObjectAnyEPKvPK6TClass
   fun:_ZN9TObjArray8StreamerER7TBuffer
   fun:_ZN11TBufferFile14WriteFastArrayEPvPK6TClassiP15TMemberStreamer
   fun:_ZN13TStreamerInfo14WriteBufferAuxIPPcEEiR7TBufferRKT_iiii
   fun:_ZN20TStreamerInfoActions18GenericWriteActionER7TBufferPvPKNS_14TConfigurationE
   fun:_ZN11TBufferFile13ApplySequenceERKN20TStreamerInfoActions15TActionSequenceEPv
   fun:_ZN11TBufferFile16WriteClassBufferEPK6TClassPv
   fun:_ZN5TTree8StreamerER7TBuffer
   fun:_ZN4TKeyC1EPK7TObjectPKciP10TDirectory
   fun:_ZN5TFile9CreateKeyEP10TDirectoryPK7TObjectPKci
}
{
   <insert a suppression name here>
   Memcheck:Leak
   fun:_vgrZU_libcZdsoZa_calloc
   fun:_dl_new_object
   fun:_dl_map_object_from_fd
   fun:_dl_map_object
   fun:dl_open_worker
   fun:_dl_catch_error
   fun:_dl_open
   fun:dlopen_doit
   fun:_dl_catch_error
   fun:_dlerror_run
   fun:dlopen@@GLIBC_2.2.5
   fun:G__dlopen
   fun:G__shl_load
   fun:G__loadfile
   fun:G__loadsystemfile
   fun:_ZN5TCint4LoadEPKcb
   fun:_ZN7TSystem4LoadEPKcS1_b
   fun:_ZN5TROOT9LoadClassEPKcS1_b
   fun:_ZN18TVirtualTreePlayer10TreePlayerEP5TTree
   fun:_ZN5TTree9GetPlayerEv
   fun:_ZN5TTree4DrawEPKcS1_S1_xx
   fun:_ZN5genie6Spline12LoadFromTreeEP5TTreeSsSs
   fun:_ZN5genie6SplineC1EP5TTreeSsSs
   fun:_ZN5genie14INukeHadroData17LoadCrossSectionsEv
}
{
   <insert a suppression name here>
   Memcheck:Leak
   fun:_vgrZU_libcZdsoZa_malloc
   fun:G__search_typename
   fun:G__search_typename2
   fun:G__cpp_setup_typetableG__TreePlayer
   fun:G__cpp_setupG__TreePlayer
   fun:G__call_setup_funcs
   fun:_Z41__static_initialization_and_destruction_0ii
   obj:/minerva/app/users/perdue/GENIE/support/root/lib/libTreePlayer.so
   obj:/minerva/app/users/perdue/GENIE/support/root/lib/libTreePlayer.so
   obj:*
   obj:*
   obj:*
   obj:*
   obj:*
   obj:*
   fun:_vgrZU_libcZdsoZa_free
   fun:G__search_typename
   fun:G__search_typename2
   fun:G__cpp_setup_typetableG__TreePlayer
   fun:G__cpp_setupG__TreePlayer
   fun:G__call_setup_funcs
   fun:_Z41__static_initialization_and_destruction_0ii
   obj:/minerva/app/users/perdue/GENIE/support/root/lib/libTreePlayer.so
   obj:/minerva/app/users/perdue/GENIE/support/root/lib/libTreePlayer.so
}
{
   <insert a suppression name here>
   Memcheck:Leak
   fun:_vgrZU_libstdcZpZpZa__Znam
   fun:ErrorHandler
   fun:_Z7WarningPKcS0_z
   fun:_ZN6TClass4InitEPKcsPKSt9type_infoP16TVirtualIsAProxyPFvPvR16TMemberInspectorES1_S1_iib
   fun:_ZN6TClassC1EPKcsS1_S1_iib
   fun:_ZN13TStreamerInfo10BuildCheckEv
   fun:_Z24R__GenerateTClassForPairRKSsS0_
   fun:_ZN24TEmulatedCollectionProxy12InitializeExEb
   fun:_ZN24TEmulatedCollectionProxyC2EPKcb
   fun:_ZN17TEmulatedMapProxyC1EPKcb
   fun:_ZN111_GLOBAL__N__minerva_app_users_perdue_GENIE_support_root_io_io_src_TCollectionProxyFactory.cxx_00000000_E1C7F02612GenEmulationEPKcb
   fun:_ZN6TClass4InitEPKcsPKSt9type_infoP16TVirtualIsAProxyPFvPvR16TMemberInspectorES1_S1_iib
   fun:_ZN6TClassC1EPKcsRKSt9type_infoP16TVirtualIsAProxyPFvPvR16TMemberInspectorES1_S1_iib
   fun:_ZN4ROOT11CreateClassEPKcsRKSt9type_infoP16TVirtualIsAProxyPFvPvR16TMemberInspectorES1_S1_ii
   fun:_ZNK4ROOT20TDefaultInitBehavior11CreateClassEPKcsRKSt9type_infoP16TVirtualIsAProxyPFvPvR16TMemberInspectorES2_S2_ii
   fun:_ZN4ROOT17TGenericClassInfo8GetClassEv
   fun:_ZN4ROOT43maplEgeniecLcLEKineVarcOdoublegR_DictionaryEv
   fun:_ZNK5TROOT9LoadClassEPKcb
   fun:_ZN6TClass8GetClassEPKcbb
   fun:_Z15R__FindSTLClassPKcbbS0_
   fun:_ZN6TClass8GetClassEPKcbb
   fun:_ZN14TBuildRealData7InspectEP6TClassPKcS3_PKv
   fun:_ZN5genie10Kinematics11ShowMembersER16TMemberInspector
   fun:_ZNK6TClass15CallShowMembersEPvR16TMemberInspectori
}
{
   <insert a suppression name here>
   Memcheck:Leak
   fun:_vgrZU_libstdcZpZpZa__Znam
   fun:_ZN8TStorage5AllocEm
   fun:_ZN9TObjArray4InitEii
   fun:_ZN9TObjArrayC1Eii
   fun:_ZN12TClonesArray8SetClassEPK6TClassi
   fun:_ZN12TClonesArrayC2EPKcib
   fun:_ZN5genie10GHepRecordC2Ev
   fun:_ZN5genie11EventRecordC1Ev
   fun:_ZN5genie16NtpMCEventRecord4InitEv
   fun:_ZN5genie16NtpMCEventRecordC1Ev
   fun:_ZN4ROOT29new_geniecLcLNtpMCEventRecordEPv
   fun:_ZNK6TClass3NewENS_8ENewTypeE
   fun:_ZN14TBranchElement10SetAddressEPv
   fun:_ZN5TTree10BronchExecEPKcS1_Pvbii
   fun:_ZN5TTree6BronchEPKcS1_Pvii
   fun:_ZN5TTree6BranchIN5genie16NtpMCEventRecordEEEP7TBranchPKcS6_PPT_ii
   fun:_ZN5genie9NtpWriter21CreateGHEPEventBranchEv
   fun:_ZN5genie9NtpWriter17CreateEventBranchEv
   fun:_ZN5genie9NtpWriter10InitializeEv
   fun:_Z31GenerateEventsUsingFluxOrTgtMixv
   fun:main
}
{
   <insert a suppression name here>
   Memcheck:Leak
   fun:_vgrZU_libstdcZpZpZa__Znam
   fun:_ZN7TArrayD3SetEi
   fun:_ZN4TH1DC1EPKcS1_idd
   fun:_ZNK5genie15FGMBodekRitchie10ProbDistroERKNS_6TargetE
   fun:_ZNK5genie15FGMBodekRitchie15GenerateNucleonERKNS_6TargetE
   fun:_ZNK5genie15NuclearModelMap15GenerateNucleonERKNS_6TargetE
   fun:_ZNK5genie10FermiMover14KickHitNucleonEPNS_10GHepRecordE
   fun:_ZNK5genie10FermiMover18ProcessEventRecordEPNS_10GHepRecordE
   fun:_ZNK5genie14EventGenerator18ProcessEventRecordEPNS_10GHepRecordE
   fun:_ZN5genie10GEVGDriver13GenerateEventERK14TLorentzVector
   fun:_ZN5genie10GMCJDriver23GenerateEventKinematicsEv
   fun:_ZN5genie10GMCJDriver17GenerateEvent1TryEv
   fun:_ZN5genie10GMCJDriver13GenerateEventEv
   fun:_Z31GenerateEventsUsingFluxOrTgtMixv
   fun:main
}
{
   <insert a suppression name here>
   Memcheck:Leak
   fun:_vgrZU_libstdcZpZpZa__Znam
   fun:_ZN3TH115ComputeIntegralEv
   fun:_ZNK3TH19GetRandomEv
   fun:_ZNK5genie15FGMBodekRitchie15GenerateNucleonERKNS_6TargetE
   fun:_ZNK5genie15NuclearModelMap15GenerateNucleonERKNS_6TargetE
   fun:_ZNK5genie10FermiMover14KickHitNucleonEPNS_10GHepRecordE
   fun:_ZNK5genie10FermiMover18ProcessEventRecordEPNS_10GHepRecordE
   fun:_ZNK5genie14EventGenerator18ProcessEventRecordEPNS_10GHepRecordE
   fun:_ZN5genie10GEVGDriver13GenerateEventERK14TLorentzVector
   fun:_ZN5genie10GMCJDriver23GenerateEventKinematicsEv
   fun:_ZN5genie10GMCJDriver17GenerateEvent1TryEv
   fun:_ZN5genie10GMCJDriver13GenerateEventEv
   fun:_Z31GenerateEventsUsingFluxOrTgtMixv
   fun:main
}
{
   <insert a suppression name here>
   Memcheck:Leak
   fun:_vgrZU_libstdcZpZpZa__Znam
   fun:_ZN6TExMap6ExpandEi
   fun:_ZN12TDatabasePDG11AddParticleEPKcS1_dbddS1_iii
   fun:_ZN12TDatabasePDG12ReadPDGTableEPKc
   fun:_ZN5genie10PDGLibrary9LoadDBaseEv
   fun:_ZN5genie10PDGLibraryC1Ev
   fun:_ZN5genie10PDGLibrary8InstanceEv
   fun:_ZNK5genie11PDGCodeList18ExistsInPDGLibraryEi
   fun:_ZNK5genie11PDGCodeList12CheckPDGCodeEi
   fun:_ZN5genie11PDGCodeList9push_backEi
   fun:_ZN5genie4flux14GCylindTH1Flux17AddEnergySpectrumEiP4TH1D
   fun:_Z13TH1FluxDriverv
   fun:_Z10FluxDriverv
   fun:_Z31GenerateEventsUsingFluxOrTgtMixv
   fun:main
}
{
   <insert a suppression name here>
   Memcheck:Leak
   fun:_vgrZU_libcZdsoZa_malloc
   fun:__alloc_dir
   fun:_ZN11TUnixSystem11UnixOpendirEPKc
   fun:_ZNK5genie6PDFLIB10InitializeEv
   fun:_ZN5genie6PDFLIB9ConfigureESs
   fun:_ZNK5genie10AlgFactory20InstantiateAlgorithmESsSs
   fun:_ZN5genie10AlgFactory12GetAlgorithmESsSs
   fun:_ZNK5genie9Algorithm6SubAlgERKSs
   fun:_ZN5genie5BYPDF10LoadConfigEv
   fun:_ZN5genie5BYPDF9ConfigureESs
   fun:_ZNK5genie10AlgFactory20InstantiateAlgorithmESsSs
   fun:_ZN5genie10AlgFactory12GetAlgorithmESsSs
   fun:_ZNK5genie9Algorithm6SubAlgERKSs
   fun:_ZN5genie19QPMDISStrucFuncBase10LoadConfigEv
   fun:_ZN5genie19QPMDISStrucFuncBase9ConfigureESs
   fun:_ZN5genie11BYStrucFunc9ConfigureESs
   fun:_ZNK5genie10AlgFactory20InstantiateAlgorithmESsSs
   fun:_ZN5genie10AlgFactory12GetAlgorithmESsSs
   fun:_ZNK5genie9Algorithm6SubAlgERKSs
   fun:_ZN5genie11QPMDISPXSec10LoadConfigEv
   fun:_ZN5genie11QPMDISPXSec9ConfigureESs
   fun:_ZNK5genie10AlgFactory20InstantiateAlgorithmESsSs
   fun:_ZN5genie10AlgFactory12GetAlgorithmESsSs
   fun:_ZNK5genie9Algorithm6SubAlgERKSs
}
{
   <insert a suppression name here>
   Memcheck:Leak
   fun:_vgrZU_libstdcZpZpZa__Znwm
   fun:_ZN9__gnu_cxx13new_allocatorISt13_Rb_tree_nodeIiEE8allocateEmPKv
   fun:_ZNSt8_Rb_treeIiiSt9_IdentityIiESt4lessIiESaIiEE11_M_get_nodeEv
   fun:_ZNSt8_Rb_treeIiiSt9_IdentityIiESt4lessIiESaIiEE14_M_create_nodeERKi
   fun:_ZNSt8_Rb_treeIiiSt9_IdentityIiESt4lessIiESaIiEE9_M_insertEPSt18_Rb_tree_node_baseS7_RKi
   fun:_ZNSt8_Rb_treeIiiSt9_IdentityIiESt4lessIiESaIiEE13insert_uniqueERKi
   fun:G__search_tagname
   fun:G__set_class_autoloading_table
   fun:_ZN5TCint14LoadLibraryMapEPKc
   fun:_ZN7TSystem4LoadEPKcS1_b
   fun:_ZN5TROOT9LoadClassEPKcS1_b
   fun:_ZN18TVirtualTreePlayer10TreePlayerEP5TTree
   fun:_ZN5TTree9GetPlayerEv
   fun:_ZN5TTree4DrawEPKcS1_S1_xx
   fun:_ZN5genie6Spline12LoadFromTreeEP5TTreeSsSs
   fun:_ZN5genie6SplineC1EP5TTreeSsSs
   fun:_ZN5genie14INukeHadroData17LoadCrossSectionsEv
   fun:_ZN5genie14INukeHadroDataC1Ev
   fun:_ZN5genie14INukeHadroData8InstanceEv
   fun:_ZN5genie11HAIntranuke10LoadConfigEv
   fun:_ZN5genie9Intranuke9ConfigureESs
   fun:_ZNK5genie10AlgFactory20InstantiateAlgorithmESsSs
   fun:_ZN5genie10AlgFactory12GetAlgorithmESsSs
   fun:_ZNK5genie9Algorithm6SubAlgERKSs
}
{
   <insert a suppression name here>
   Memcheck:Leak
   fun:_vgrZU_libcZdsoZa_malloc
   fun:xmlNewNode
   fun:xmlNewDocNode
   fun:xmlSAX2StartElementNs
   obj:/usr/lib64/libxml2.so.2.6.26
   fun:xmlParseElement
   fun:xmlParseContent
   fun:xmlParseElement
   fun:xmlParseContent
   fun:xmlParseElement
   fun:xmlParseDocument
   fun:xmlSAXParseFileWithData
   fun:_ZN5genie13AlgConfigPool14LoadRegistriesESsSsSs
   fun:_ZN5genie13AlgConfigPool19LoadSingleAlgConfigESsSs
   fun:_ZN5genie13AlgConfigPool13LoadAlgConfigEv
   fun:_ZN5genie13AlgConfigPoolC1Ev
   fun:_ZN5genie13AlgConfigPool8InstanceEv
   fun:_ZN5genie10GMCJDriver7InitJobEv
   fun:_ZN5genie10GMCJDriverC1Ev
   fun:_Z31GenerateEventsUsingFluxOrTgtMixv
   fun:main
}
{
   <insert a suppression name here>
   Memcheck:Leak
   fun:_vgrZU_libstdcZpZpZa__Znam
   fun:_ZN7TString7ReplaceEiiPKci
   fun:_ZN11TDataMemberC1EPvP6TClass
   fun:_ZN5TCint23CreateListOfDataMembersEP6TClass
   fun:_ZN6TClass20GetListOfDataMembersEv
   fun:_ZNK6TClass13GetDataMemberEPKc
   fun:_ZN14TBuildRealData7InspectEP6TClassPKcS3_PKv
   fun:_ZN7TObject11ShowMembersER16TMemberInspector
   fun:_ZN5TAxis11ShowMembersER16TMemberInspector
   fun:_ZNK6TClass15CallShowMembersEPvR16TMemberInspectori
   fun:_ZN6TClass13BuildRealDataEPvb
   fun:_ZN14TBuildRealData7InspectEP6TClassPKcS3_PKv
   fun:_ZN3TH111ShowMembersER16TMemberInspector
   fun:_ZN4TH1D11ShowMembersER16TMemberInspector
   fun:_ZNK6TClass15CallShowMembersEPvR16TMemberInspectori
   fun:_ZN6TClass13BuildRealDataEPvb
   fun:_ZN11TBufferFile16WriteClassBufferEPK6TClassPv
   fun:_ZN4TKeyC1EPK7TObjectPKciP10TDirectory
   fun:_ZN5TFile9CreateKeyEP10TDirectoryPK7TObjectPKci
   fun:_ZN14TDirectoryFile12WriteTObjectEPK7TObjectPKcS4_i
   fun:_ZNK7TObject5WriteEPKcii
   fun:_Z13TH1FluxDriverv
   fun:_Z10FluxDriverv
   fun:_Z31GenerateEventsUsingFluxOrTgtMixv
}
{
   <insert a suppression name here>
   Memcheck:Leak
   fun:_vgrZU_libcZdsoZa_malloc
   obj:/usr/lib64/libxml2.so.2.6.26
   fun:xmlSAX2StartElementNs
   obj:/usr/lib64/libxml2.so.2.6.26
   fun:xmlParseElement
   fun:xmlParseContent
   fun:xmlParseElement
   fun:xmlParseContent
   fun:xmlParseElement
   fun:xmlParseDocument
   fun:xmlSAXParseFileWithData
   fun:_ZN5genie13AlgConfigPool14LoadRegistriesESsSsSs
   fun:_ZN5genie13AlgConfigPool19LoadSingleAlgConfigESsSs
   fun:_ZN5genie13AlgConfigPool13LoadAlgConfigEv
   fun:_ZN5genie13AlgConfigPoolC1Ev
   fun:_ZN5genie13AlgConfigPool8InstanceEv
   fun:_ZN5genie10GMCJDriver7InitJobEv
   fun:_ZN5genie10GMCJDriverC1Ev
   fun:_Z31GenerateEventsUsingFluxOrTgtMixv
   fun:main
}
{
   <insert a suppression name here>
   Memcheck:Leak
   fun:_vgrZU_libstdcZpZpZa__Znwm
   fun:_ZNSt8_Rb_treeIPKcSt4pairIKS1_St3setIiSt4lessIiESaIiEEESt10_Select1stIS9_EN7NameMap15G__charptr_lessESaIS9_EE9_M_insertEPSt18_Rb_tree_node_baseSH_RKS9_
   fun:_ZNSt8_Rb_treeIPKcSt4pairIKS1_St3setIiSt4lessIiESaIiEEESt10_Select1stIS9_EN7NameMap15G__charptr_lessESaIS9_EE13insert_uniqueESt17_Rb_tree_iteratorIS9_ERKS9_
   fun:G__search_tagname
   fun:G__set_class_autoloading_table
   fun:_ZN5TCint14LoadLibraryMapEPKc
   fun:_ZN7TSystem4LoadEPKcS1_b
   fun:_ZN5TROOT9LoadClassEPKcS1_b
   fun:_ZN18TVirtualTreePlayer10TreePlayerEP5TTree
   fun:_ZN5TTree9GetPlayerEv
   fun:_ZN5TTree4DrawEPKcS1_S1_xx
   fun:_ZN5genie6Spline12LoadFromTreeEP5TTreeSsSs
   fun:_ZN5genie6SplineC1EP5TTreeSsSs
   fun:_ZN5genie14INukeHadroData17LoadCrossSectionsEv
   fun:_ZN5genie14INukeHadroDataC1Ev
   fun:_ZN5genie14INukeHadroData8InstanceEv
   fun:_ZN5genie11HAIntranuke10LoadConfigEv
   fun:_ZN5genie9Intranuke9ConfigureESs
   fun:_ZNK5genie10AlgFactory20InstantiateAlgorithmESsSs
   fun:_ZN5genie10AlgFactory12GetAlgorithmESsSs
   fun:_ZNK5genie9Algorithm6SubAlgERKSs
   fun:_ZN5genie17HadronTransporter10LoadConfigEv
   fun:_ZN5genie17HadronTransporter9ConfigureESs
   fun:_ZNK5genie10AlgFactory20InstantiateAlgorithmESsSs
}
{
   <insert a suppression name here>
   Memcheck:Leak
   fun:_vgrZU_libcZdsoZa_malloc
   fun:_Z16G__allocvariable8G__valuePS_P12G__var_arrayS2_iiPKcPciRN4Cint19G__DataMemberHandleE
   fun:_Z14G__letvariableR18G__FastAllocString8G__valueP12G__var_arrayS3_RN4Cint19G__DataMemberHandleE
   fun:_Z14G__letvariableR18G__FastAllocString8G__valueP12G__var_arrayS3_
   fun:G__getexpr
   fun:G__memvar_setup
   fun:_Z26G__setup_memvarTCollectionv
   fun:G__incsetup_memvar
   fun:_ZN4Cint17G__DataMemberInfoC1ERNS_12G__ClassInfoE
   fun:_ZN5TCint23CreateListOfDataMembersEP6TClass
   fun:_ZN6TClass20GetListOfDataMembersEv
   fun:_ZNK6TClass13GetDataMemberEPKc
   fun:_ZN14TBuildRealData7InspectEP6TClassPKcS3_PKv
   fun:_ZN11TCollection11ShowMembersER16TMemberInspector
   fun:_ZNK6TClass15CallShowMembersEPvR16TMemberInspectori
   fun:_ZN6TClass13BuildRealDataEPvb
   fun:_ZN13TStreamerInfo5BuildEv
   fun:_ZNK6TClass15GetStreamerInfoEi
   fun:_ZN11TBufferFile14WriteFastArrayEPPvPK6TClassibP15TMemberStreamer
   fun:_ZN13TStreamerInfo14WriteBufferAuxIPPcEEiR7TBufferRKT_iiii
   fun:_ZN20TStreamerInfoActions18GenericWriteActionER7TBufferPvPKNS_14TConfigurationE
   fun:_ZN11TBufferFile13ApplySequenceERKN20TStreamerInfoActions15TActionSequenceEPv
   fun:_ZN11TBufferFile16WriteClassBufferEPK6TClassPv
   fun:_ZN5TAxis8StreamerER7TBuffer
}
{
   <insert a suppression name here>
   Memcheck:Leak
   fun:_vgrZU_libstdcZpZpZa__Znwm
   fun:_ZNK5TCint16CallFunc_FactoryEv
   fun:_ZNK6TClass15CallShowMembersEPvR16TMemberInspectori
   fun:_ZN6TClass13BuildRealDataEPvb
   fun:_ZN14TBuildRealData7InspectEP6TClassPKcS3_PKv
   fun:_ZN5TAxis11ShowMembersER16TMemberInspector
   fun:_ZNK6TClass15CallShowMembersEPvR16TMemberInspectori
   fun:_ZN6TClass13BuildRealDataEPvb
   fun:_ZN14TBuildRealData7InspectEP6TClassPKcS3_PKv
   fun:_ZN3TH111ShowMembersER16TMemberInspector
   fun:_ZN4TH1D11ShowMembersER16TMemberInspector
   fun:_ZNK6TClass15CallShowMembersEPvR16TMemberInspectori
   fun:_ZN6TClass13BuildRealDataEPvb
   fun:_ZN11TBufferFile16WriteClassBufferEPK6TClassPv
   fun:_ZN4TKeyC1EPK7TObjectPKciP10TDirectory
   fun:_ZN5TFile9CreateKeyEP10TDirectoryPK7TObjectPKci
   fun:_ZN14TDirectoryFile12WriteTObjectEPK7TObjectPKcS4_i
   fun:_ZNK7TObject5WriteEPKcii
   fun:_Z13TH1FluxDriverv
   fun:_Z10FluxDriverv
   fun:_Z31GenerateEventsUsingFluxOrTgtMixv
   fun:main
}
{
   <insert a suppression name here>
   Memcheck:Leak
   fun:_vgrZU_libcZdsoZa_malloc
   obj:/usr/lib64/libxml2.so.2.6.26
   fun:xmlSAX2StartElementNs
   obj:/usr/lib64/libxml2.so.2.6.26
   fun:xmlParseElement
   fun:xmlParseContent
   fun:xmlParseElement
   fun:xmlParseContent
   fun:xmlParseElement
   fun:xmlParseDocument
   fun:xmlSAXParseFileWithData
   fun:_ZN5genie13AlgConfigPool14LoadRegistriesESsSsSs
   fun:_ZN5genie13AlgConfigPool19LoadSingleAlgConfigESsSs
   fun:_ZN5genie13AlgConfigPool13LoadAlgConfigEv
   fun:_ZN5genie13AlgConfigPoolC1Ev
   fun:_ZN5genie13AlgConfigPool8InstanceEv
   fun:_ZN5genie10GMCJDriver7InitJobEv
   fun:_ZN5genie10GMCJDriverC1Ev
   fun:_Z31GenerateEventsUsingFluxOrTgtMixv
   fun:main
}
{
   <insert a suppression name here>
   Memcheck:Leak
   fun:_vgrZU_libcZdsoZa_malloc
   fun:G__search_tagname
   fun:G__set_class_autoloading_table
   fun:_ZN5TCint14LoadLibraryMapEPKc
   fun:_ZN7TSystem4LoadEPKcS1_b
   fun:_ZN5TROOT9LoadClassEPKcS1_b
   fun:_ZN18TVirtualTreePlayer10TreePlayerEP5TTree
   fun:_ZN5TTree9GetPlayerEv
   fun:_ZN5TTree4DrawEPKcS1_S1_xx
   fun:_ZN5genie6Spline12LoadFromTreeEP5TTreeSsSs
   fun:_ZN5genie6SplineC1EP5TTreeSsSs
   fun:_ZN5genie14INukeHadroData17LoadCrossSectionsEv
   fun:_ZN5genie14INukeHadroDataC1Ev
   fun:_ZN5genie14INukeHadroData8InstanceEv
   fun:_ZN5genie11HAIntranuke10LoadConfigEv
   fun:_ZN5genie9Intranuke9ConfigureESs
   fun:_ZNK5genie10AlgFactory20InstantiateAlgorithmESsSs
   fun:_ZN5genie10AlgFactory12GetAlgorithmESsSs
   fun:_ZNK5genie9Algorithm6SubAlgERKSs
   fun:_ZN5genie17HadronTransporter10LoadConfigEv
   fun:_ZN5genie17HadronTransporter9ConfigureESs
   fun:_ZNK5genie10AlgFactory20InstantiateAlgorithmESsSs
   fun:_ZN5genie10AlgFactory12GetAlgorithmESsSs
   fun:_ZNK5genie9Algorithm6SubAlgERKSs
}
{
   <insert a suppression name here>
   Memcheck:Leak
   fun:_vgrZU_libcZdsoZa_malloc
   fun:G__search_tagname
   fun:G__set_class_autoloading_table
   fun:_ZN5TCint14LoadLibraryMapEPKc
   fun:_ZN7TSystem4LoadEPKcS1_b
   fun:_ZN5TROOT9LoadClassEPKcS1_b
   fun:_ZN18TVirtualTreePlayer10TreePlayerEP5TTree
   fun:_ZN5TTree9GetPlayerEv
   fun:_ZN5TTree4DrawEPKcS1_S1_xx
   fun:_ZN5genie6Spline12LoadFromTreeEP5TTreeSsSs
   fun:_ZN5genie6SplineC1EP5TTreeSsSs
   fun:_ZN5genie14INukeHadroData17LoadCrossSectionsEv
   fun:_ZN5genie14INukeHadroDataC1Ev
   fun:_ZN5genie14INukeHadroData8InstanceEv
   fun:_ZN5genie11HAIntranuke10LoadConfigEv
   fun:_ZN5genie9Intranuke9ConfigureESs
   fun:_ZNK5genie10AlgFactory20InstantiateAlgorithmESsSs
   fun:_ZN5genie10AlgFactory12GetAlgorithmESsSs
   fun:_ZNK5genie9Algorithm6SubAlgERKSs
   fun:_ZN5genie17HadronTransporter10LoadConfigEv
   fun:_ZN5genie17HadronTransporter9ConfigureESs
   fun:_ZNK5genie10AlgFactory20InstantiateAlgorithmESsSs
   fun:_ZN5genie10AlgFactory12GetAlgorithmESsSs
   fun:_ZNK5genie9Algorithm6SubAlgERKSs
}
{
   <insert a suppression name here>
   Memcheck:Leak
   fun:_vgrZU_libstdcZpZpZa__Znwm
   fun:_ZN8TStorage11ObjectAllocEm
   fun:_ZN12TDatabasePDG11AddParticleEPKcS1_dbddS1_iii
   fun:_ZN12TDatabasePDG12ReadPDGTableEPKc
   fun:_ZN5genie10PDGLibrary9LoadDBaseEv
   fun:_ZN5genie10PDGLibraryC1Ev
   fun:_ZN5genie10PDGLibrary8InstanceEv
   fun:_ZNK5genie11PDGCodeList18ExistsInPDGLibraryEi
   fun:_ZNK5genie11PDGCodeList12CheckPDGCodeEi
   fun:_ZN5genie11PDGCodeList9push_backEi
   fun:_ZN5genie4flux14GCylindTH1Flux17AddEnergySpectrumEiP4TH1D
   fun:_Z13TH1FluxDriverv
   fun:_Z10FluxDriverv
   fun:_Z31GenerateEventsUsingFluxOrTgtMixv
   fun:main
}
{
   <insert a suppression name here>
   Memcheck:Leak
   fun:_vgrZU_libcZdsoZa_malloc
   fun:G__memfunc_next
   fun:G__memfunc_setup_imp
   fun:_Z36G__setup_memfuncTVirtualStreamerInfov
   fun:G__incsetup_memfunc
   fun:_ZN4Cint12G__ClassInfo9HasMethodEPKc
   fun:_ZNK5TCint19ClassInfo_HasMethodEPvPKc
   fun:_ZNK6TClass8PropertyEv
   fun:_ZNK6TClass9IsForeignEv
   fun:_ZN6TClass13PostLoadCheckEv
   fun:_ZNK5TROOT9LoadClassEPKcb
   fun:_ZN6TClass8GetClassEPKcbb
   fun:_ZN10TBaseClass15GetClassPointerEb
   fun:_ZN6TClass12GetBaseClassEPKS_
   fun:_ZNK6TClass12InheritsFromEPKS_
   fun:_ZNK6TClass8PropertyEv
   fun:_ZNK6TClass9IsForeignEv
   fun:_ZN6TClass13PostLoadCheckEv
   fun:_ZNK5TROOT9LoadClassEPKcb
   fun:_ZN14TPluginHandler10LoadPluginEv
   fun:_ZN20TVirtualStreamerInfo7FactoryEv
   fun:_ZNK6TClass15GetStreamerInfoEi
   fun:_ZN13TStreamerInfo5BuildEv
   fun:_ZN11TBufferFile16WriteClassBufferEPK6TClassPv
}
